
ac780x_timer_test:     file format elf64-x86-64
ac780x_timer_test
architecture: i386:x86-64, flags 0x00000150:
HAS_SYMS, DYNAMIC, D_PAGED
start address 0x0000000000002500

Program Header:
    PHDR off    0x0000000000000040 vaddr 0x0000000000000040 paddr 0x0000000000000040 align 2**3
         filesz 0x00000000000002d8 memsz 0x00000000000002d8 flags r--
  INTERP off    0x0000000000000318 vaddr 0x0000000000000318 paddr 0x0000000000000318 align 2**0
         filesz 0x000000000000001c memsz 0x000000000000001c flags r--
    LOAD off    0x0000000000000000 vaddr 0x0000000000000000 paddr 0x0000000000000000 align 2**12
         filesz 0x00000000000011a8 memsz 0x00000000000011a8 flags r--
    LOAD off    0x0000000000002000 vaddr 0x0000000000002000 paddr 0x0000000000002000 align 2**12
         filesz 0x0000000000004945 memsz 0x0000000000004945 flags r-x
    LOAD off    0x0000000000007000 vaddr 0x0000000000007000 paddr 0x0000000000007000 align 2**12
         filesz 0x0000000000001bcc memsz 0x0000000000001bcc flags r--
    LOAD off    0x0000000000009b70 vaddr 0x000000000000ab70 paddr 0x000000000000ab70 align 2**12
         filesz 0x0000000000000530 memsz 0x0000000000000820 flags rw-
 DYNAMIC off    0x0000000000009c98 vaddr 0x000000000000ac98 paddr 0x000000000000ac98 align 2**3
         filesz 0x00000000000001f0 memsz 0x00000000000001f0 flags rw-
    NOTE off    0x0000000000000338 vaddr 0x0000000000000338 paddr 0x0000000000000338 align 2**3
         filesz 0x0000000000000030 memsz 0x0000000000000030 flags r--
    NOTE off    0x0000000000000368 vaddr 0x0000000000000368 paddr 0x0000000000000368 align 2**2
         filesz 0x0000000000000044 memsz 0x0000000000000044 flags r--
0x6474e553 off    0x0000000000000338 vaddr 0x0000000000000338 paddr 0x0000000000000338 align 2**3
         filesz 0x0000000000000030 memsz 0x0000000000000030 flags r--
EH_FRAME off    0x0000000000008518 vaddr 0x0000000000008518 paddr 0x0000000000008518 align 2**2
         filesz 0x000000000000015c memsz 0x000000000000015c flags r--
   STACK off    0x0000000000000000 vaddr 0x0000000000000000 paddr 0x0000000000000000 align 2**4
         filesz 0x0000000000000000 memsz 0x0000000000000000 flags rw-
   RELRO off    0x0000000000009b70 vaddr 0x000000000000ab70 paddr 0x000000000000ab70 align 2**0
         filesz 0x0000000000000490 memsz 0x0000000000000490 flags r--

Dynamic Section:
  NEEDED               libc.so.6
  INIT                 0x0000000000002000
  FINI                 0x0000000000006938
  INIT_ARRAY           0x000000000000ab70
  INIT_ARRAYSZ         0x0000000000000008
  FINI_ARRAY           0x000000000000ab78
  FINI_ARRAYSZ         0x0000000000000008
  GNU_HASH             0x00000000000003b0
  STRTAB               0x0000000000000810
  SYMTAB               0x00000000000003d8
  STRSZ                0x00000000000001d3
  SYMENT               0x0000000000000018
  DEBUG                0x0000000000000000
  PLTGOT               0x000000000000ae88
  PLTRELSZ             0x0000000000000390
  PLTREL               0x0000000000000007
  JMPREL               0x0000000000000e18
  RELA                 0x0000000000000aa0
  RELASZ               0x0000000000000378
  RELAENT              0x0000000000000018
  FLAGS                0x0000000000000008
  FLAGS_1              0x0000000008000001
  VERNEED              0x0000000000000a40
  VERNEEDNUM           0x0000000000000001
  VERSYM               0x00000000000009e4
  RELACOUNT            0x000000000000001f

Version References:
  required from libc.so.6:
    0x06969194 0x00 06 GLIBC_2.14
    0x0d696914 0x00 05 GLIBC_2.4
    0x0d696917 0x00 04 GLIBC_2.7
    0x069691b4 0x00 03 GLIBC_2.34
    0x09691a75 0x00 02 GLIBC_2.2.5

Sections:
Idx Name          Size      VMA               LMA               File off  Algn
  0 .interp       0000001c  0000000000000318  0000000000000318  00000318  2**0
                  CONTENTS, ALLOC, LOAD, READONLY, DATA
  1 .note.gnu.property 00000030  0000000000000338  0000000000000338  00000338  2**3
                  CONTENTS, ALLOC, LOAD, READONLY, DATA
  2 .note.gnu.build-id 00000024  0000000000000368  0000000000000368  00000368  2**2
                  CONTENTS, ALLOC, LOAD, READONLY, DATA
  3 .note.ABI-tag 00000020  000000000000038c  000000000000038c  0000038c  2**2
                  CONTENTS, ALLOC, LOAD, READONLY, DATA
  4 .gnu.hash     00000028  00000000000003b0  00000000000003b0  000003b0  2**3
                  CONTENTS, ALLOC, LOAD, READONLY, DATA
  5 .dynsym       00000438  00000000000003d8  00000000000003d8  000003d8  2**3
                  CONTENTS, ALLOC, LOAD, READONLY, DATA
  6 .dynstr       000001d3  0000000000000810  0000000000000810  00000810  2**0
                  CONTENTS, ALLOC, LOAD, READONLY, DATA
  7 .gnu.version  0000005a  00000000000009e4  00000000000009e4  000009e4  2**1
                  CONTENTS, ALLOC, LOAD, READONLY, DATA
  8 .gnu.version_r 00000060  0000000000000a40  0000000000000a40  00000a40  2**3
                  CONTENTS, ALLOC, LOAD, READONLY, DATA
  9 .rela.dyn     00000378  0000000000000aa0  0000000000000aa0  00000aa0  2**3
                  CONTENTS, ALLOC, LOAD, READONLY, DATA
 10 .rela.plt     00000390  0000000000000e18  0000000000000e18  00000e18  2**3
                  CONTENTS, ALLOC, LOAD, READONLY, DATA
 11 .init         0000001b  0000000000002000  0000000000002000  00002000  2**2
                  CONTENTS, ALLOC, LOAD, READONLY, CODE
 12 .plt          00000270  0000000000002020  0000000000002020  00002020  2**4
                  CONTENTS, ALLOC, LOAD, READONLY, CODE
 13 .plt.got      00000010  0000000000002290  0000000000002290  00002290  2**4
                  CONTENTS, ALLOC, LOAD, READONLY, CODE
 14 .plt.sec      00000260  00000000000022a0  00000000000022a0  000022a0  2**4
                  CONTENTS, ALLOC, LOAD, READONLY, CODE
 15 .text         00004438  0000000000002500  0000000000002500  00002500  2**4
                  CONTENTS, ALLOC, LOAD, READONLY, CODE
 16 .fini         0000000d  0000000000006938  0000000000006938  00006938  2**2
                  CONTENTS, ALLOC, LOAD, READONLY, CODE
 17 .rodata       00001515  0000000000007000  0000000000007000  00007000  2**5
                  CONTENTS, ALLOC, LOAD, READONLY, DATA
 18 .eh_frame_hdr 0000015c  0000000000008518  0000000000008518  00008518  2**2
                  CONTENTS, ALLOC, LOAD, READONLY, DATA
 19 .eh_frame     00000554  0000000000008678  0000000000008678  00008678  2**3
                  CONTENTS, ALLOC, LOAD, READONLY, DATA
 20 .init_array   00000008  000000000000ab70  000000000000ab70  00009b70  2**3
                  CONTENTS, ALLOC, LOAD, DATA
 21 .fini_array   00000008  000000000000ab78  000000000000ab78  00009b78  2**3
                  CONTENTS, ALLOC, LOAD, DATA
 22 .data.rel.ro  00000118  000000000000ab80  000000000000ab80  00009b80  2**5
                  CONTENTS, ALLOC, LOAD, DATA
 23 .dynamic      000001f0  000000000000ac98  000000000000ac98  00009c98  2**3
                  CONTENTS, ALLOC, LOAD, DATA
 24 .got          00000170  000000000000ae88  000000000000ae88  00009e88  2**3
                  CONTENTS, ALLOC, LOAD, DATA
 25 .data         000000a0  000000000000b000  000000000000b000  0000a000  2**5
                  CONTENTS, ALLOC, LOAD, DATA
 26 .bss          000002f0  000000000000b0a0  000000000000b0a0  0000a0a0  2**5
                  ALLOC
 27 .comment      0000002b  0000000000000000  0000000000000000  0000a0a0  2**0
                  CONTENTS, READONLY
 28 .debug_aranges 000000c0  0000000000000000  0000000000000000  0000a0cb  2**0
                  CONTENTS, READONLY, DEBUGGING, OCTETS
 29 .debug_info   000034b1  0000000000000000  0000000000000000  0000a18b  2**0
                  CONTENTS, READONLY, DEBUGGING, OCTETS
 30 .debug_abbrev 00000ac9  0000000000000000  0000000000000000  0000d63c  2**0
                  CONTENTS, READONLY, DEBUGGING, OCTETS
 31 .debug_line   000014e7  0000000000000000  0000000000000000  0000e105  2**0
                  CONTENTS, READONLY, DEBUGGING, OCTETS
 32 .debug_str    000013d5  0000000000000000  0000000000000000  0000f5ec  2**0
                  CONTENTS, READONLY, DEBUGGING, OCTETS
 33 .debug_line_str 00000317  0000000000000000  0000000000000000  000109c1  2**0
                  CONTENTS, READONLY, DEBUGGING, OCTETS
 34 .debug_rnglists 00000022  0000000000000000  0000000000000000  00010cd8  2**0
                  CONTENTS, READONLY, DEBUGGING, OCTETS
SYMBOL TABLE:
0000000000000000 l    df *ABS*	0000000000000000              Scrt1.o
000000000000038c l     O .note.ABI-tag	0000000000000020              __abi_tag
0000000000000000 l    df *ABS*	0000000000000000              crtstuff.c
0000000000002530 l     F .text	0000000000000000              deregister_tm_clones
0000000000002560 l     F .text	0000000000000000              register_tm_clones
00000000000025a0 l     F .text	0000000000000000              __do_global_dtors_aux
000000000000b0a8 l     O .bss	0000000000000001              completed.0
000000000000ab78 l     O .fini_array	0000000000000000              __do_global_dtors_aux_fini_array_entry
00000000000025e0 l     F .text	0000000000000000              frame_dummy
000000000000ab70 l     O .init_array	0000000000000000              __frame_dummy_init_array_entry
0000000000000000 l    df *ABS*	0000000000000000              multitask_timer.c
00000000000025e9 l     F .text	0000000000000024              TIMER_SetChannel
000000000000260d l     F .text	000000000000007b              stricmp
000000000000b0b0 l     O .bss	0000000000000010              g_TimeoutCount
000000000000b020 l     O .data	0000000000000004              g_TimerLog
000000000000b040 l     O .data	0000000000000020              g_TIMERCHx
0000000000002688 l     F .text	00000000000000a7              Timer_Callback
000000000000288c l     F .text	000000000000022a              ConfigCmd
0000000000002ab6 l     F .text	0000000000000184              StartCmd
0000000000002c3a l     F .text	00000000000000f8              StopCmd
0000000000002d32 l     F .text	0000000000000126              ReadValueCmd
0000000000002e58 l     F .text	000000000000010c              DeInitChannelCmd
0000000000002f64 l     F .text	000000000000002e              DeInitCmd
0000000000000000 l    df *ABS*	0000000000000000              ac780x_timer.c
0000000000003159 l     F .text	0000000000000026              TIMER_Enable
000000000000317f l     F .text	0000000000000024              TIMER_SetChannel
00000000000031a3 l     F .text	0000000000000028              TIMER_SetInterrupt
00000000000031cb l     F .text	0000000000000029              TIMER_SetChainMode
000000000000b0c0 l     O .bss	0000000000000020              s_timerCallback
00000000000073e0 l     O .rodata	0000000000000020              s_timerChnBase
0000000000000000 l    df *ABS*	0000000000000000              driver_interface.c
000000000000b0e0 l     O .bss	0000000000000200              devices
000000000000b2e0 l     O .bss	0000000000000004              device_count
000000000000b060 l     O .data	0000000000000004              server_socket
000000000000b300 l     O .bss	0000000000000080              interrupt_handlers
000000000000b380 l     O .bss	0000000000000004              pending_device_interrupt
000000000000b384 l     O .bss	0000000000000004              pending_interrupt_id
000000000000b388 l     O .bss	0000000000000004              interrupt_pending
0000000000003551 l     F .text	0000000000000228              get_instruction_length
0000000000003779 l     F .text	00000000000001a2              get_destination_register_from_modrm
000000000000391b l     F .text	00000000000001a2              get_source_register_from_modrm
0000000000003abd l     F .text	0000000000000188              interrupt_signal_handler
00000000000083f0 l     O .rodata	0000000000000019              __func__.8
0000000000003c45 l     F .text	0000000000001a93              segv_handler
0000000000008410 l     O .rodata	000000000000000d              __func__.7
0000000000008420 l     O .rodata	0000000000000015              __func__.6
0000000000008440 l     O .rodata	0000000000000017              __func__.5
0000000000008460 l     O .rodata	0000000000000010              __func__.4
0000000000008470 l     O .rodata	0000000000000012              __func__.3
0000000000008488 l     O .rodata	000000000000000e              __func__.2
0000000000008498 l     O .rodata	000000000000000f              __func__.1
00000000000084b0 l     O .rodata	0000000000000016              __func__.0
0000000000000000 l    df *ABS*	0000000000000000              logging.c
000000000000b064 l     O .data	0000000000000004              current_log_level
000000000000b38c l     O .bss	0000000000000004              logging_initialized
000000000000b080 l     O .data	0000000000000020              level_names
0000000000000000 l    df *ABS*	0000000000000000              crtstuff.c
0000000000008bc8 l     O .eh_frame	0000000000000000              __FRAME_END__
0000000000000000 l    df *ABS*	0000000000000000              
000000000000ac98 l     O .dynamic	0000000000000000              _DYNAMIC
0000000000008518 l       .eh_frame_hdr	0000000000000000              __GNU_EH_FRAME_HDR
000000000000ae88 l     O .got	0000000000000000              _GLOBAL_OFFSET_TABLE_
0000000000000000       F *UND*	0000000000000000              getenv@GLIBC_2.2.5
000000000000666d g     F .text	00000000000000dd              log_init
0000000000000000       F *UND*	0000000000000000              recv@GLIBC_2.2.5
0000000000000000       F *UND*	0000000000000000              putchar@GLIBC_2.2.5
0000000000000000       F *UND*	0000000000000000              localtime@GLIBC_2.2.5
0000000000005e59 g     F .text	00000000000001b2              read_register
0000000000000000       F *UND*	0000000000000000              __libc_start_main@GLIBC_2.34
0000000000000000       F *UND*	0000000000000000              __errno_location@GLIBC_2.2.5
0000000000000000       F *UND*	0000000000000000              unlink@GLIBC_2.2.5
0000000000000000       F *UND*	0000000000000000              strncpy@GLIBC_2.2.5
0000000000000000  w      *UND*	0000000000000000              _ITM_deregisterTMCloneTable
000000000000b0a0 g     O .bss	0000000000000008              stdout@GLIBC_2.2.5
000000000000b000  w      .data	0000000000000000              data_start
0000000000000000       F *UND*	0000000000000000              __isoc99_fscanf@GLIBC_2.7
0000000000000000       F *UND*	0000000000000000              puts@GLIBC_2.2.5
0000000000000000       F *UND*	0000000000000000              sigaction@GLIBC_2.2.5
0000000000000000       F *UND*	0000000000000000              getpid@GLIBC_2.2.5
000000000000674a g     F .text	000000000000001d              log_set_level
000000000000b0a0 g       .data	0000000000000000              _edata
0000000000000000       F *UND*	0000000000000000              fclose@GLIBC_2.2.5
0000000000005b1b g     F .text	0000000000000185              register_device
0000000000006938 g     F .fini	0000000000000000              .hidden _fini
0000000000000000       F *UND*	0000000000000000              strlen@GLIBC_2.2.5
00000000000061d5 g     F .text	000000000000003d              register_interrupt_handler
0000000000000000       F *UND*	0000000000000000              __stack_chk_fail@GLIBC_2.4
0000000000000000       F *UND*	0000000000000000              mmap@GLIBC_2.2.5
0000000000000000       F *UND*	0000000000000000              send@GLIBC_2.2.5
0000000000000000       F *UND*	0000000000000000              printf@GLIBC_2.2.5
0000000000000000       F *UND*	0000000000000000              snprintf@GLIBC_2.2.5
0000000000000000       F *UND*	0000000000000000              gettimeofday@GLIBC_2.2.5
0000000000000000       F *UND*	0000000000000000              memset@GLIBC_2.2.5
0000000000000000       F *UND*	0000000000000000              close@GLIBC_2.2.5
0000000000003407 g     F .text	000000000000007c              TIMER_SetCallback
0000000000005ca0 g     F .text	00000000000001b9              unregister_device
000000000000b000 g       .data	0000000000000000              __data_start
0000000000000000       F *UND*	0000000000000000              strcmp@GLIBC_2.2.5
000000000000333f g     F .text	00000000000000c8              TIMER_DeInitChannel
0000000000000000       F *UND*	0000000000000000              fprintf@GLIBC_2.2.5
0000000000000000       F *UND*	0000000000000000              sigemptyset@GLIBC_2.2.5
0000000000000000  w      *UND*	0000000000000000              __gmon_start__
000000000000b008 g     O .data	0000000000000000              .hidden __dso_handle
0000000000006212 g     F .text	000000000000044c              send_message_to_model
0000000000000000       F *UND*	0000000000000000              memcpy@GLIBC_2.14
0000000000007000 g     O .rodata	0000000000000004              _IO_stdin_used
00000000000031f4 g     F .text	000000000000010c              TIMER_Init
0000000000000000       F *UND*	0000000000000000              tolower@GLIBC_2.2.5
000000000000272f g     F .text	000000000000015d              HSM_TestArgs2Int
0000000000000000       F *UND*	0000000000000000              fflush@GLIBC_2.2.5
000000000000665e g     F .text	000000000000000f              get_interface_process_pid
0000000000000000       F *UND*	0000000000000000              listen@GLIBC_2.2.5
000000000000b390 g       .bss	0000000000000000              _end
0000000000000000       F *UND*	0000000000000000              vprintf@GLIBC_2.2.5
000000000000ab80 g     O .data.rel.ro	0000000000000118              g_timTestMenu
0000000000002500 g     F .text	0000000000000026              _start
000000000000b0a0 g       .bss	0000000000000000              __bss_start
0000000000000000       F *UND*	0000000000000000              munmap@GLIBC_2.2.5
0000000000002f92 g     F .text	00000000000001c7              main
0000000000006767 g     F .text	0000000000000010              log_get_level
000000000000600b g     F .text	00000000000001ca              write_register
0000000000006777 g     F .text	00000000000001c1              log_message
0000000000000000       F *UND*	0000000000000000              bind@GLIBC_2.2.5
0000000000000000       F *UND*	0000000000000000              fopen@GLIBC_2.2.5
0000000000000000       F *UND*	0000000000000000              perror@GLIBC_2.2.5
0000000000000000       F *UND*	0000000000000000              atoi@GLIBC_2.2.5
00000000000059f1 g     F .text	000000000000012a              interface_layer_deinit
00000000000056d8 g     F .text	0000000000000319              interface_layer_init
0000000000000000       F *UND*	0000000000000000              exit@GLIBC_2.2.5
0000000000000000       F *UND*	0000000000000000              connect@GLIBC_2.2.5
000000000000b0a0 g     O .data	0000000000000000              .hidden __TMC_END__
0000000000000000  w      *UND*	0000000000000000              _ITM_registerTMCloneTable
0000000000003483 g     F .text	00000000000000ce              TIMER_Channel_IRQHandler
0000000000000000       F *UND*	0000000000000000              strerror@GLIBC_2.2.5
0000000000000000  w    F *UND*	0000000000000000              __cxa_finalize@GLIBC_2.2.5
0000000000002000 g     F .init	0000000000000000              .hidden _init
0000000000000000       F *UND*	0000000000000000              socket@GLIBC_2.2.5
0000000000003300 g     F .text	000000000000003f              TIMER_DeInit



Disassembly of section .init:

0000000000002000 <_init>:
    2000:	f3 0f 1e fa          	endbr64 
    2004:	48 83 ec 08          	sub    $0x8,%rsp
    2008:	48 8b 05 d1 8f 00 00 	mov    0x8fd1(%rip),%rax        # afe0 <__gmon_start__@Base>
    200f:	48 85 c0             	test   %rax,%rax
    2012:	74 02                	je     2016 <_init+0x16>
    2014:	ff d0                	call   *%rax
    2016:	48 83 c4 08          	add    $0x8,%rsp
    201a:	c3                   	ret    

Disassembly of section .plt:

0000000000002020 <.plt>:
    2020:	ff 35 6a 8e 00 00    	push   0x8e6a(%rip)        # ae90 <_GLOBAL_OFFSET_TABLE_+0x8>
    2026:	f2 ff 25 6b 8e 00 00 	bnd jmp *0x8e6b(%rip)        # ae98 <_GLOBAL_OFFSET_TABLE_+0x10>
    202d:	0f 1f 00             	nopl   (%rax)
    2030:	f3 0f 1e fa          	endbr64 
    2034:	68 00 00 00 00       	push   $0x0
    2039:	f2 e9 e1 ff ff ff    	bnd jmp 2020 <_init+0x20>
    203f:	90                   	nop
    2040:	f3 0f 1e fa          	endbr64 
    2044:	68 01 00 00 00       	push   $0x1
    2049:	f2 e9 d1 ff ff ff    	bnd jmp 2020 <_init+0x20>
    204f:	90                   	nop
    2050:	f3 0f 1e fa          	endbr64 
    2054:	68 02 00 00 00       	push   $0x2
    2059:	f2 e9 c1 ff ff ff    	bnd jmp 2020 <_init+0x20>
    205f:	90                   	nop
    2060:	f3 0f 1e fa          	endbr64 
    2064:	68 03 00 00 00       	push   $0x3
    2069:	f2 e9 b1 ff ff ff    	bnd jmp 2020 <_init+0x20>
    206f:	90                   	nop
    2070:	f3 0f 1e fa          	endbr64 
    2074:	68 04 00 00 00       	push   $0x4
    2079:	f2 e9 a1 ff ff ff    	bnd jmp 2020 <_init+0x20>
    207f:	90                   	nop
    2080:	f3 0f 1e fa          	endbr64 
    2084:	68 05 00 00 00       	push   $0x5
    2089:	f2 e9 91 ff ff ff    	bnd jmp 2020 <_init+0x20>
    208f:	90                   	nop
    2090:	f3 0f 1e fa          	endbr64 
    2094:	68 06 00 00 00       	push   $0x6
    2099:	f2 e9 81 ff ff ff    	bnd jmp 2020 <_init+0x20>
    209f:	90                   	nop
    20a0:	f3 0f 1e fa          	endbr64 
    20a4:	68 07 00 00 00       	push   $0x7
    20a9:	f2 e9 71 ff ff ff    	bnd jmp 2020 <_init+0x20>
    20af:	90                   	nop
    20b0:	f3 0f 1e fa          	endbr64 
    20b4:	68 08 00 00 00       	push   $0x8
    20b9:	f2 e9 61 ff ff ff    	bnd jmp 2020 <_init+0x20>
    20bf:	90                   	nop
    20c0:	f3 0f 1e fa          	endbr64 
    20c4:	68 09 00 00 00       	push   $0x9
    20c9:	f2 e9 51 ff ff ff    	bnd jmp 2020 <_init+0x20>
    20cf:	90                   	nop
    20d0:	f3 0f 1e fa          	endbr64 
    20d4:	68 0a 00 00 00       	push   $0xa
    20d9:	f2 e9 41 ff ff ff    	bnd jmp 2020 <_init+0x20>
    20df:	90                   	nop
    20e0:	f3 0f 1e fa          	endbr64 
    20e4:	68 0b 00 00 00       	push   $0xb
    20e9:	f2 e9 31 ff ff ff    	bnd jmp 2020 <_init+0x20>
    20ef:	90                   	nop
    20f0:	f3 0f 1e fa          	endbr64 
    20f4:	68 0c 00 00 00       	push   $0xc
    20f9:	f2 e9 21 ff ff ff    	bnd jmp 2020 <_init+0x20>
    20ff:	90                   	nop
    2100:	f3 0f 1e fa          	endbr64 
    2104:	68 0d 00 00 00       	push   $0xd
    2109:	f2 e9 11 ff ff ff    	bnd jmp 2020 <_init+0x20>
    210f:	90                   	nop
    2110:	f3 0f 1e fa          	endbr64 
    2114:	68 0e 00 00 00       	push   $0xe
    2119:	f2 e9 01 ff ff ff    	bnd jmp 2020 <_init+0x20>
    211f:	90                   	nop
    2120:	f3 0f 1e fa          	endbr64 
    2124:	68 0f 00 00 00       	push   $0xf
    2129:	f2 e9 f1 fe ff ff    	bnd jmp 2020 <_init+0x20>
    212f:	90                   	nop
    2130:	f3 0f 1e fa          	endbr64 
    2134:	68 10 00 00 00       	push   $0x10
    2139:	f2 e9 e1 fe ff ff    	bnd jmp 2020 <_init+0x20>
    213f:	90                   	nop
    2140:	f3 0f 1e fa          	endbr64 
    2144:	68 11 00 00 00       	push   $0x11
    2149:	f2 e9 d1 fe ff ff    	bnd jmp 2020 <_init+0x20>
    214f:	90                   	nop
    2150:	f3 0f 1e fa          	endbr64 
    2154:	68 12 00 00 00       	push   $0x12
    2159:	f2 e9 c1 fe ff ff    	bnd jmp 2020 <_init+0x20>
    215f:	90                   	nop
    2160:	f3 0f 1e fa          	endbr64 
    2164:	68 13 00 00 00       	push   $0x13
    2169:	f2 e9 b1 fe ff ff    	bnd jmp 2020 <_init+0x20>
    216f:	90                   	nop
    2170:	f3 0f 1e fa          	endbr64 
    2174:	68 14 00 00 00       	push   $0x14
    2179:	f2 e9 a1 fe ff ff    	bnd jmp 2020 <_init+0x20>
    217f:	90                   	nop
    2180:	f3 0f 1e fa          	endbr64 
    2184:	68 15 00 00 00       	push   $0x15
    2189:	f2 e9 91 fe ff ff    	bnd jmp 2020 <_init+0x20>
    218f:	90                   	nop
    2190:	f3 0f 1e fa          	endbr64 
    2194:	68 16 00 00 00       	push   $0x16
    2199:	f2 e9 81 fe ff ff    	bnd jmp 2020 <_init+0x20>
    219f:	90                   	nop
    21a0:	f3 0f 1e fa          	endbr64 
    21a4:	68 17 00 00 00       	push   $0x17
    21a9:	f2 e9 71 fe ff ff    	bnd jmp 2020 <_init+0x20>
    21af:	90                   	nop
    21b0:	f3 0f 1e fa          	endbr64 
    21b4:	68 18 00 00 00       	push   $0x18
    21b9:	f2 e9 61 fe ff ff    	bnd jmp 2020 <_init+0x20>
    21bf:	90                   	nop
    21c0:	f3 0f 1e fa          	endbr64 
    21c4:	68 19 00 00 00       	push   $0x19
    21c9:	f2 e9 51 fe ff ff    	bnd jmp 2020 <_init+0x20>
    21cf:	90                   	nop
    21d0:	f3 0f 1e fa          	endbr64 
    21d4:	68 1a 00 00 00       	push   $0x1a
    21d9:	f2 e9 41 fe ff ff    	bnd jmp 2020 <_init+0x20>
    21df:	90                   	nop
    21e0:	f3 0f 1e fa          	endbr64 
    21e4:	68 1b 00 00 00       	push   $0x1b
    21e9:	f2 e9 31 fe ff ff    	bnd jmp 2020 <_init+0x20>
    21ef:	90                   	nop
    21f0:	f3 0f 1e fa          	endbr64 
    21f4:	68 1c 00 00 00       	push   $0x1c
    21f9:	f2 e9 21 fe ff ff    	bnd jmp 2020 <_init+0x20>
    21ff:	90                   	nop
    2200:	f3 0f 1e fa          	endbr64 
    2204:	68 1d 00 00 00       	push   $0x1d
    2209:	f2 e9 11 fe ff ff    	bnd jmp 2020 <_init+0x20>
    220f:	90                   	nop
    2210:	f3 0f 1e fa          	endbr64 
    2214:	68 1e 00 00 00       	push   $0x1e
    2219:	f2 e9 01 fe ff ff    	bnd jmp 2020 <_init+0x20>
    221f:	90                   	nop
    2220:	f3 0f 1e fa          	endbr64 
    2224:	68 1f 00 00 00       	push   $0x1f
    2229:	f2 e9 f1 fd ff ff    	bnd jmp 2020 <_init+0x20>
    222f:	90                   	nop
    2230:	f3 0f 1e fa          	endbr64 
    2234:	68 20 00 00 00       	push   $0x20
    2239:	f2 e9 e1 fd ff ff    	bnd jmp 2020 <_init+0x20>
    223f:	90                   	nop
    2240:	f3 0f 1e fa          	endbr64 
    2244:	68 21 00 00 00       	push   $0x21
    2249:	f2 e9 d1 fd ff ff    	bnd jmp 2020 <_init+0x20>
    224f:	90                   	nop
    2250:	f3 0f 1e fa          	endbr64 
    2254:	68 22 00 00 00       	push   $0x22
    2259:	f2 e9 c1 fd ff ff    	bnd jmp 2020 <_init+0x20>
    225f:	90                   	nop
    2260:	f3 0f 1e fa          	endbr64 
    2264:	68 23 00 00 00       	push   $0x23
    2269:	f2 e9 b1 fd ff ff    	bnd jmp 2020 <_init+0x20>
    226f:	90                   	nop
    2270:	f3 0f 1e fa          	endbr64 
    2274:	68 24 00 00 00       	push   $0x24
    2279:	f2 e9 a1 fd ff ff    	bnd jmp 2020 <_init+0x20>
    227f:	90                   	nop
    2280:	f3 0f 1e fa          	endbr64 
    2284:	68 25 00 00 00       	push   $0x25
    2289:	f2 e9 91 fd ff ff    	bnd jmp 2020 <_init+0x20>
    228f:	90                   	nop

Disassembly of section .plt.got:

0000000000002290 <__cxa_finalize@plt>:
    2290:	f3 0f 1e fa          	endbr64 
    2294:	f2 ff 25 55 8d 00 00 	bnd jmp *0x8d55(%rip)        # aff0 <__cxa_finalize@GLIBC_2.2.5>
    229b:	0f 1f 44 00 00       	nopl   0x0(%rax,%rax,1)

Disassembly of section .plt.sec:

00000000000022a0 <getenv@plt>:
    22a0:	f3 0f 1e fa          	endbr64 
    22a4:	f2 ff 25 f5 8b 00 00 	bnd jmp *0x8bf5(%rip)        # aea0 <getenv@GLIBC_2.2.5>
    22ab:	0f 1f 44 00 00       	nopl   0x0(%rax,%rax,1)

00000000000022b0 <recv@plt>:
    22b0:	f3 0f 1e fa          	endbr64 
    22b4:	f2 ff 25 ed 8b 00 00 	bnd jmp *0x8bed(%rip)        # aea8 <recv@GLIBC_2.2.5>
    22bb:	0f 1f 44 00 00       	nopl   0x0(%rax,%rax,1)

00000000000022c0 <putchar@plt>:
    22c0:	f3 0f 1e fa          	endbr64 
    22c4:	f2 ff 25 e5 8b 00 00 	bnd jmp *0x8be5(%rip)        # aeb0 <putchar@GLIBC_2.2.5>
    22cb:	0f 1f 44 00 00       	nopl   0x0(%rax,%rax,1)

00000000000022d0 <localtime@plt>:
    22d0:	f3 0f 1e fa          	endbr64 
    22d4:	f2 ff 25 dd 8b 00 00 	bnd jmp *0x8bdd(%rip)        # aeb8 <localtime@GLIBC_2.2.5>
    22db:	0f 1f 44 00 00       	nopl   0x0(%rax,%rax,1)

00000000000022e0 <__errno_location@plt>:
    22e0:	f3 0f 1e fa          	endbr64 
    22e4:	f2 ff 25 d5 8b 00 00 	bnd jmp *0x8bd5(%rip)        # aec0 <__errno_location@GLIBC_2.2.5>
    22eb:	0f 1f 44 00 00       	nopl   0x0(%rax,%rax,1)

00000000000022f0 <unlink@plt>:
    22f0:	f3 0f 1e fa          	endbr64 
    22f4:	f2 ff 25 cd 8b 00 00 	bnd jmp *0x8bcd(%rip)        # aec8 <unlink@GLIBC_2.2.5>
    22fb:	0f 1f 44 00 00       	nopl   0x0(%rax,%rax,1)

0000000000002300 <strncpy@plt>:
    2300:	f3 0f 1e fa          	endbr64 
    2304:	f2 ff 25 c5 8b 00 00 	bnd jmp *0x8bc5(%rip)        # aed0 <strncpy@GLIBC_2.2.5>
    230b:	0f 1f 44 00 00       	nopl   0x0(%rax,%rax,1)

0000000000002310 <__isoc99_fscanf@plt>:
    2310:	f3 0f 1e fa          	endbr64 
    2314:	f2 ff 25 bd 8b 00 00 	bnd jmp *0x8bbd(%rip)        # aed8 <__isoc99_fscanf@GLIBC_2.7>
    231b:	0f 1f 44 00 00       	nopl   0x0(%rax,%rax,1)

0000000000002320 <puts@plt>:
    2320:	f3 0f 1e fa          	endbr64 
    2324:	f2 ff 25 b5 8b 00 00 	bnd jmp *0x8bb5(%rip)        # aee0 <puts@GLIBC_2.2.5>
    232b:	0f 1f 44 00 00       	nopl   0x0(%rax,%rax,1)

0000000000002330 <sigaction@plt>:
    2330:	f3 0f 1e fa          	endbr64 
    2334:	f2 ff 25 ad 8b 00 00 	bnd jmp *0x8bad(%rip)        # aee8 <sigaction@GLIBC_2.2.5>
    233b:	0f 1f 44 00 00       	nopl   0x0(%rax,%rax,1)

0000000000002340 <getpid@plt>:
    2340:	f3 0f 1e fa          	endbr64 
    2344:	f2 ff 25 a5 8b 00 00 	bnd jmp *0x8ba5(%rip)        # aef0 <getpid@GLIBC_2.2.5>
    234b:	0f 1f 44 00 00       	nopl   0x0(%rax,%rax,1)

0000000000002350 <fclose@plt>:
    2350:	f3 0f 1e fa          	endbr64 
    2354:	f2 ff 25 9d 8b 00 00 	bnd jmp *0x8b9d(%rip)        # aef8 <fclose@GLIBC_2.2.5>
    235b:	0f 1f 44 00 00       	nopl   0x0(%rax,%rax,1)

0000000000002360 <strlen@plt>:
    2360:	f3 0f 1e fa          	endbr64 
    2364:	f2 ff 25 95 8b 00 00 	bnd jmp *0x8b95(%rip)        # af00 <strlen@GLIBC_2.2.5>
    236b:	0f 1f 44 00 00       	nopl   0x0(%rax,%rax,1)

0000000000002370 <__stack_chk_fail@plt>:
    2370:	f3 0f 1e fa          	endbr64 
    2374:	f2 ff 25 8d 8b 00 00 	bnd jmp *0x8b8d(%rip)        # af08 <__stack_chk_fail@GLIBC_2.4>
    237b:	0f 1f 44 00 00       	nopl   0x0(%rax,%rax,1)

0000000000002380 <mmap@plt>:
    2380:	f3 0f 1e fa          	endbr64 
    2384:	f2 ff 25 85 8b 00 00 	bnd jmp *0x8b85(%rip)        # af10 <mmap@GLIBC_2.2.5>
    238b:	0f 1f 44 00 00       	nopl   0x0(%rax,%rax,1)

0000000000002390 <send@plt>:
    2390:	f3 0f 1e fa          	endbr64 
    2394:	f2 ff 25 7d 8b 00 00 	bnd jmp *0x8b7d(%rip)        # af18 <send@GLIBC_2.2.5>
    239b:	0f 1f 44 00 00       	nopl   0x0(%rax,%rax,1)

00000000000023a0 <printf@plt>:
    23a0:	f3 0f 1e fa          	endbr64 
    23a4:	f2 ff 25 75 8b 00 00 	bnd jmp *0x8b75(%rip)        # af20 <printf@GLIBC_2.2.5>
    23ab:	0f 1f 44 00 00       	nopl   0x0(%rax,%rax,1)

00000000000023b0 <snprintf@plt>:
    23b0:	f3 0f 1e fa          	endbr64 
    23b4:	f2 ff 25 6d 8b 00 00 	bnd jmp *0x8b6d(%rip)        # af28 <snprintf@GLIBC_2.2.5>
    23bb:	0f 1f 44 00 00       	nopl   0x0(%rax,%rax,1)

00000000000023c0 <gettimeofday@plt>:
    23c0:	f3 0f 1e fa          	endbr64 
    23c4:	f2 ff 25 65 8b 00 00 	bnd jmp *0x8b65(%rip)        # af30 <gettimeofday@GLIBC_2.2.5>
    23cb:	0f 1f 44 00 00       	nopl   0x0(%rax,%rax,1)

00000000000023d0 <memset@plt>:
    23d0:	f3 0f 1e fa          	endbr64 
    23d4:	f2 ff 25 5d 8b 00 00 	bnd jmp *0x8b5d(%rip)        # af38 <memset@GLIBC_2.2.5>
    23db:	0f 1f 44 00 00       	nopl   0x0(%rax,%rax,1)

00000000000023e0 <close@plt>:
    23e0:	f3 0f 1e fa          	endbr64 
    23e4:	f2 ff 25 55 8b 00 00 	bnd jmp *0x8b55(%rip)        # af40 <close@GLIBC_2.2.5>
    23eb:	0f 1f 44 00 00       	nopl   0x0(%rax,%rax,1)

00000000000023f0 <strcmp@plt>:
    23f0:	f3 0f 1e fa          	endbr64 
    23f4:	f2 ff 25 4d 8b 00 00 	bnd jmp *0x8b4d(%rip)        # af48 <strcmp@GLIBC_2.2.5>
    23fb:	0f 1f 44 00 00       	nopl   0x0(%rax,%rax,1)

0000000000002400 <fprintf@plt>:
    2400:	f3 0f 1e fa          	endbr64 
    2404:	f2 ff 25 45 8b 00 00 	bnd jmp *0x8b45(%rip)        # af50 <fprintf@GLIBC_2.2.5>
    240b:	0f 1f 44 00 00       	nopl   0x0(%rax,%rax,1)

0000000000002410 <sigemptyset@plt>:
    2410:	f3 0f 1e fa          	endbr64 
    2414:	f2 ff 25 3d 8b 00 00 	bnd jmp *0x8b3d(%rip)        # af58 <sigemptyset@GLIBC_2.2.5>
    241b:	0f 1f 44 00 00       	nopl   0x0(%rax,%rax,1)

0000000000002420 <memcpy@plt>:
    2420:	f3 0f 1e fa          	endbr64 
    2424:	f2 ff 25 35 8b 00 00 	bnd jmp *0x8b35(%rip)        # af60 <memcpy@GLIBC_2.14>
    242b:	0f 1f 44 00 00       	nopl   0x0(%rax,%rax,1)

0000000000002430 <tolower@plt>:
    2430:	f3 0f 1e fa          	endbr64 
    2434:	f2 ff 25 2d 8b 00 00 	bnd jmp *0x8b2d(%rip)        # af68 <tolower@GLIBC_2.2.5>
    243b:	0f 1f 44 00 00       	nopl   0x0(%rax,%rax,1)

0000000000002440 <fflush@plt>:
    2440:	f3 0f 1e fa          	endbr64 
    2444:	f2 ff 25 25 8b 00 00 	bnd jmp *0x8b25(%rip)        # af70 <fflush@GLIBC_2.2.5>
    244b:	0f 1f 44 00 00       	nopl   0x0(%rax,%rax,1)

0000000000002450 <listen@plt>:
    2450:	f3 0f 1e fa          	endbr64 
    2454:	f2 ff 25 1d 8b 00 00 	bnd jmp *0x8b1d(%rip)        # af78 <listen@GLIBC_2.2.5>
    245b:	0f 1f 44 00 00       	nopl   0x0(%rax,%rax,1)

0000000000002460 <vprintf@plt>:
    2460:	f3 0f 1e fa          	endbr64 
    2464:	f2 ff 25 15 8b 00 00 	bnd jmp *0x8b15(%rip)        # af80 <vprintf@GLIBC_2.2.5>
    246b:	0f 1f 44 00 00       	nopl   0x0(%rax,%rax,1)

0000000000002470 <munmap@plt>:
    2470:	f3 0f 1e fa          	endbr64 
    2474:	f2 ff 25 0d 8b 00 00 	bnd jmp *0x8b0d(%rip)        # af88 <munmap@GLIBC_2.2.5>
    247b:	0f 1f 44 00 00       	nopl   0x0(%rax,%rax,1)

0000000000002480 <bind@plt>:
    2480:	f3 0f 1e fa          	endbr64 
    2484:	f2 ff 25 05 8b 00 00 	bnd jmp *0x8b05(%rip)        # af90 <bind@GLIBC_2.2.5>
    248b:	0f 1f 44 00 00       	nopl   0x0(%rax,%rax,1)

0000000000002490 <fopen@plt>:
    2490:	f3 0f 1e fa          	endbr64 
    2494:	f2 ff 25 fd 8a 00 00 	bnd jmp *0x8afd(%rip)        # af98 <fopen@GLIBC_2.2.5>
    249b:	0f 1f 44 00 00       	nopl   0x0(%rax,%rax,1)

00000000000024a0 <perror@plt>:
    24a0:	f3 0f 1e fa          	endbr64 
    24a4:	f2 ff 25 f5 8a 00 00 	bnd jmp *0x8af5(%rip)        # afa0 <perror@GLIBC_2.2.5>
    24ab:	0f 1f 44 00 00       	nopl   0x0(%rax,%rax,1)

00000000000024b0 <atoi@plt>:
    24b0:	f3 0f 1e fa          	endbr64 
    24b4:	f2 ff 25 ed 8a 00 00 	bnd jmp *0x8aed(%rip)        # afa8 <atoi@GLIBC_2.2.5>
    24bb:	0f 1f 44 00 00       	nopl   0x0(%rax,%rax,1)

00000000000024c0 <exit@plt>:
    24c0:	f3 0f 1e fa          	endbr64 
    24c4:	f2 ff 25 e5 8a 00 00 	bnd jmp *0x8ae5(%rip)        # afb0 <exit@GLIBC_2.2.5>
    24cb:	0f 1f 44 00 00       	nopl   0x0(%rax,%rax,1)

00000000000024d0 <connect@plt>:
    24d0:	f3 0f 1e fa          	endbr64 
    24d4:	f2 ff 25 dd 8a 00 00 	bnd jmp *0x8add(%rip)        # afb8 <connect@GLIBC_2.2.5>
    24db:	0f 1f 44 00 00       	nopl   0x0(%rax,%rax,1)

00000000000024e0 <strerror@plt>:
    24e0:	f3 0f 1e fa          	endbr64 
    24e4:	f2 ff 25 d5 8a 00 00 	bnd jmp *0x8ad5(%rip)        # afc0 <strerror@GLIBC_2.2.5>
    24eb:	0f 1f 44 00 00       	nopl   0x0(%rax,%rax,1)

00000000000024f0 <socket@plt>:
    24f0:	f3 0f 1e fa          	endbr64 
    24f4:	f2 ff 25 cd 8a 00 00 	bnd jmp *0x8acd(%rip)        # afc8 <socket@GLIBC_2.2.5>
    24fb:	0f 1f 44 00 00       	nopl   0x0(%rax,%rax,1)

Disassembly of section .text:

0000000000002500 <_start>:
    2500:	f3 0f 1e fa          	endbr64 
    2504:	31 ed                	xor    %ebp,%ebp
    2506:	49 89 d1             	mov    %rdx,%r9
    2509:	5e                   	pop    %rsi
    250a:	48 89 e2             	mov    %rsp,%rdx
    250d:	48 83 e4 f0          	and    $0xfffffffffffffff0,%rsp
    2511:	50                   	push   %rax
    2512:	54                   	push   %rsp
    2513:	45 31 c0             	xor    %r8d,%r8d
    2516:	31 c9                	xor    %ecx,%ecx
    2518:	48 8d 3d 73 0a 00 00 	lea    0xa73(%rip),%rdi        # 2f92 <main>
    251f:	ff 15 ab 8a 00 00    	call   *0x8aab(%rip)        # afd0 <__libc_start_main@GLIBC_2.34>
    2525:	f4                   	hlt    
    2526:	66 2e 0f 1f 84 00 00 	cs nopw 0x0(%rax,%rax,1)
    252d:	00 00 00 

0000000000002530 <deregister_tm_clones>:
    2530:	48 8d 3d 69 8b 00 00 	lea    0x8b69(%rip),%rdi        # b0a0 <stdout@GLIBC_2.2.5>
    2537:	48 8d 05 62 8b 00 00 	lea    0x8b62(%rip),%rax        # b0a0 <stdout@GLIBC_2.2.5>
    253e:	48 39 f8             	cmp    %rdi,%rax
    2541:	74 15                	je     2558 <deregister_tm_clones+0x28>
    2543:	48 8b 05 8e 8a 00 00 	mov    0x8a8e(%rip),%rax        # afd8 <_ITM_deregisterTMCloneTable@Base>
    254a:	48 85 c0             	test   %rax,%rax
    254d:	74 09                	je     2558 <deregister_tm_clones+0x28>
    254f:	ff e0                	jmp    *%rax
    2551:	0f 1f 80 00 00 00 00 	nopl   0x0(%rax)
    2558:	c3                   	ret    
    2559:	0f 1f 80 00 00 00 00 	nopl   0x0(%rax)

0000000000002560 <register_tm_clones>:
    2560:	48 8d 3d 39 8b 00 00 	lea    0x8b39(%rip),%rdi        # b0a0 <stdout@GLIBC_2.2.5>
    2567:	48 8d 35 32 8b 00 00 	lea    0x8b32(%rip),%rsi        # b0a0 <stdout@GLIBC_2.2.5>
    256e:	48 29 fe             	sub    %rdi,%rsi
    2571:	48 89 f0             	mov    %rsi,%rax
    2574:	48 c1 ee 3f          	shr    $0x3f,%rsi
    2578:	48 c1 f8 03          	sar    $0x3,%rax
    257c:	48 01 c6             	add    %rax,%rsi
    257f:	48 d1 fe             	sar    %rsi
    2582:	74 14                	je     2598 <register_tm_clones+0x38>
    2584:	48 8b 05 5d 8a 00 00 	mov    0x8a5d(%rip),%rax        # afe8 <_ITM_registerTMCloneTable@Base>
    258b:	48 85 c0             	test   %rax,%rax
    258e:	74 08                	je     2598 <register_tm_clones+0x38>
    2590:	ff e0                	jmp    *%rax
    2592:	66 0f 1f 44 00 00    	nopw   0x0(%rax,%rax,1)
    2598:	c3                   	ret    
    2599:	0f 1f 80 00 00 00 00 	nopl   0x0(%rax)

00000000000025a0 <__do_global_dtors_aux>:
    25a0:	f3 0f 1e fa          	endbr64 
    25a4:	80 3d fd 8a 00 00 00 	cmpb   $0x0,0x8afd(%rip)        # b0a8 <completed.0>
    25ab:	75 2b                	jne    25d8 <__do_global_dtors_aux+0x38>
    25ad:	55                   	push   %rbp
    25ae:	48 83 3d 3a 8a 00 00 	cmpq   $0x0,0x8a3a(%rip)        # aff0 <__cxa_finalize@GLIBC_2.2.5>
    25b5:	00 
    25b6:	48 89 e5             	mov    %rsp,%rbp
    25b9:	74 0c                	je     25c7 <__do_global_dtors_aux+0x27>
    25bb:	48 8b 3d 46 8a 00 00 	mov    0x8a46(%rip),%rdi        # b008 <__dso_handle>
    25c2:	e8 c9 fc ff ff       	call   2290 <__cxa_finalize@plt>
    25c7:	e8 64 ff ff ff       	call   2530 <deregister_tm_clones>
    25cc:	c6 05 d5 8a 00 00 01 	movb   $0x1,0x8ad5(%rip)        # b0a8 <completed.0>
    25d3:	5d                   	pop    %rbp
    25d4:	c3                   	ret    
    25d5:	0f 1f 00             	nopl   (%rax)
    25d8:	c3                   	ret    
    25d9:	0f 1f 80 00 00 00 00 	nopl   0x0(%rax)

00000000000025e0 <frame_dummy>:
    25e0:	f3 0f 1e fa          	endbr64 
    25e4:	e9 77 ff ff ff       	jmp    2560 <register_tm_clones>

00000000000025e9 <TIMER_SetChannel>:
                - ENABLE
                - DISABLE
* @return none
*/
__STATIC_INLINE void TIMER_SetChannel(TIMER_CHANNEL_Type *TIMERCHx, ACTION_Type state)
{
    25e9:	55                   	push   %rbp
    25ea:	48 89 e5             	mov    %rsp,%rbp
    25ed:	48 89 7d f8          	mov    %rdi,-0x8(%rbp)
    25f1:	89 75 f4             	mov    %esi,-0xc(%rbp)
    MODIFY_REG32(TIMERCHx->INIT, TIMER_CHANNEL_INIT_TEN_Msk, TIMER_CHANNEL_INIT_TEN_Pos, state);
    25f4:	48 8b 45 f8          	mov    -0x8(%rbp),%rax
    25f8:	8b 40 08             	mov    0x8(%rax),%eax
    25fb:	83 e0 fe             	and    $0xfffffffe,%eax
    25fe:	0b 45 f4             	or     -0xc(%rbp),%eax
    2601:	89 c2                	mov    %eax,%edx
    2603:	48 8b 45 f8          	mov    -0x8(%rbp),%rax
    2607:	89 50 08             	mov    %edx,0x8(%rax)
}
    260a:	90                   	nop
    260b:	5d                   	pop    %rbp
    260c:	c3                   	ret    

000000000000260d <stricmp>:
#include <string.h>
#include "interface_layer.h"
#define APB_BUS_FREQ 1000U // 1KHz for simulation

static unsigned char stricmp(const char *s1, const char *s2)
{
    260d:	f3 0f 1e fa          	endbr64 
    2611:	55                   	push   %rbp
    2612:	48 89 e5             	mov    %rsp,%rbp
    2615:	53                   	push   %rbx
    2616:	48 83 ec 18          	sub    $0x18,%rsp
    261a:	48 89 7d e8          	mov    %rdi,-0x18(%rbp)
    261e:	48 89 75 e0          	mov    %rsi,-0x20(%rbp)
    while (*s1 && *s2 && tolower((unsigned char)*s1) == tolower((unsigned char)*s2)) {
    2622:	eb 0a                	jmp    262e <stricmp+0x21>
        s1++;
    2624:	48 83 45 e8 01       	addq   $0x1,-0x18(%rbp)
        s2++;
    2629:	48 83 45 e0 01       	addq   $0x1,-0x20(%rbp)
    while (*s1 && *s2 && tolower((unsigned char)*s1) == tolower((unsigned char)*s2)) {
    262e:	48 8b 45 e8          	mov    -0x18(%rbp),%rax
    2632:	0f b6 00             	movzbl (%rax),%eax
    2635:	84 c0                	test   %al,%al
    2637:	74 33                	je     266c <stricmp+0x5f>
    2639:	48 8b 45 e0          	mov    -0x20(%rbp),%rax
    263d:	0f b6 00             	movzbl (%rax),%eax
    2640:	84 c0                	test   %al,%al
    2642:	74 28                	je     266c <stricmp+0x5f>
    2644:	48 8b 45 e8          	mov    -0x18(%rbp),%rax
    2648:	0f b6 00             	movzbl (%rax),%eax
    264b:	0f b6 c0             	movzbl %al,%eax
    264e:	89 c7                	mov    %eax,%edi
    2650:	e8 db fd ff ff       	call   2430 <tolower@plt>
    2655:	89 c3                	mov    %eax,%ebx
    2657:	48 8b 45 e0          	mov    -0x20(%rbp),%rax
    265b:	0f b6 00             	movzbl (%rax),%eax
    265e:	0f b6 c0             	movzbl %al,%eax
    2661:	89 c7                	mov    %eax,%edi
    2663:	e8 c8 fd ff ff       	call   2430 <tolower@plt>
    2668:	39 c3                	cmp    %eax,%ebx
    266a:	74 b8                	je     2624 <stricmp+0x17>
    }
    return (unsigned char)*s1 - (unsigned char)*s2;
    266c:	48 8b 45 e8          	mov    -0x18(%rbp),%rax
    2670:	0f b6 00             	movzbl (%rax),%eax
    2673:	89 c2                	mov    %eax,%edx
    2675:	48 8b 45 e0          	mov    -0x20(%rbp),%rax
    2679:	0f b6 00             	movzbl (%rax),%eax
    267c:	89 c1                	mov    %eax,%ecx
    267e:	89 d0                	mov    %edx,%eax
    2680:	29 c8                	sub    %ecx,%eax
}
    2682:	48 8b 5d f8          	mov    -0x8(%rbp),%rbx
    2686:	c9                   	leave  
    2687:	c3                   	ret    

0000000000002688 <Timer_Callback>:
static uint8_t g_TimerLog[TIMER_CHANNEL_MAX] = {1U};
static TIMER_CHANNEL_Type *g_TIMERCHx[TIMER_CHANNEL_MAX] =
        {TIMER_CHANNEL0, TIMER_CHANNEL1, TIMER_CHANNEL2, TIMER_CHANNEL3};

static void Timer_Callback(void *device, uint32_t wpara, uint32_t lpara)
{
    2688:	f3 0f 1e fa          	endbr64 
    268c:	55                   	push   %rbp
    268d:	48 89 e5             	mov    %rsp,%rbp
    2690:	48 83 ec 20          	sub    $0x20,%rsp
    2694:	48 89 7d e8          	mov    %rdi,-0x18(%rbp)
    2698:	89 75 e4             	mov    %esi,-0x1c(%rbp)
    269b:	89 55 e0             	mov    %edx,-0x20(%rbp)
    uint8_t instance = 0;
    269e:	c6 45 ff 00          	movb   $0x0,-0x1(%rbp)
    instance = TIMER_CHANNEL_INDEX((TIMER_CHANNEL_Type *)device);
    26a2:	48 8b 45 e8          	mov    -0x18(%rbp),%rax
    26a6:	89 c0                	mov    %eax,%eax
    26a8:	48 2d 00 11 01 40    	sub    $0x40011100,%rax
    26ae:	48 c1 e8 04          	shr    $0x4,%rax
    26b2:	88 45 ff             	mov    %al,-0x1(%rbp)
    g_TimeoutCount[instance] ++;
    26b5:	0f b6 45 ff          	movzbl -0x1(%rbp),%eax
    26b9:	48 63 d0             	movslq %eax,%rdx
    26bc:	48 8d 0c 95 00 00 00 	lea    0x0(,%rdx,4),%rcx
    26c3:	00 
    26c4:	48 8d 15 e5 89 00 00 	lea    0x89e5(%rip),%rdx        # b0b0 <g_TimeoutCount>
    26cb:	8b 14 11             	mov    (%rcx,%rdx,1),%edx
    26ce:	8d 4a 01             	lea    0x1(%rdx),%ecx
    26d1:	48 98                	cltq   
    26d3:	48 8d 14 85 00 00 00 	lea    0x0(,%rax,4),%rdx
    26da:	00 
    26db:	48 8d 05 ce 89 00 00 	lea    0x89ce(%rip),%rax        # b0b0 <g_TimeoutCount>
    26e2:	89 0c 02             	mov    %ecx,(%rdx,%rax,1)
    if (g_TimerLog[instance] != 0U)
    26e5:	0f b6 45 ff          	movzbl -0x1(%rbp),%eax
    26e9:	48 98                	cltq   
    26eb:	48 8d 15 2e 89 00 00 	lea    0x892e(%rip),%rdx        # b020 <g_TimerLog>
    26f2:	0f b6 04 10          	movzbl (%rax,%rdx,1),%eax
    26f6:	84 c0                	test   %al,%al
    26f8:	74 32                	je     272c <Timer_Callback+0xa4>
    {
        DEBUGMSG(DEBUG_ZONE_INFO, ("[CB]Timer(%d)  TO_Count(%d)\r\n",
    26fa:	0f b6 45 ff          	movzbl -0x1(%rbp),%eax
    26fe:	48 98                	cltq   
    2700:	48 8d 14 85 00 00 00 	lea    0x0(,%rax,4),%rdx
    2707:	00 
    2708:	48 8d 05 a1 89 00 00 	lea    0x89a1(%rip),%rax        # b0b0 <g_TimeoutCount>
    270f:	8b 14 02             	mov    (%rdx,%rax,1),%edx
    2712:	0f b6 45 ff          	movzbl -0x1(%rbp),%eax
    2716:	89 c6                	mov    %eax,%esi
    2718:	48 8d 05 e9 48 00 00 	lea    0x48e9(%rip),%rax        # 7008 <_IO_stdin_used+0x8>
    271f:	48 89 c7             	mov    %rax,%rdi
    2722:	b8 00 00 00 00       	mov    $0x0,%eax
    2727:	e8 74 fc ff ff       	call   23a0 <printf@plt>
                        instance, g_TimeoutCount[instance]));
    }
}
    272c:	90                   	nop
    272d:	c9                   	leave  
    272e:	c3                   	ret    

000000000000272f <HSM_TestArgs2Int>:

int HSM_TestArgs2Int(char *args)
{
    272f:	f3 0f 1e fa          	endbr64 
    2733:	55                   	push   %rbp
    2734:	48 89 e5             	mov    %rsp,%rbp
    2737:	48 83 ec 30          	sub    $0x30,%rsp
    273b:	48 89 7d d8          	mov    %rdi,-0x28(%rbp)
    char *end;
    int result = 0;
    273f:	c7 45 e8 00 00 00 00 	movl   $0x0,-0x18(%rbp)
    int len = strlen(args);
    2746:	48 8b 45 d8          	mov    -0x28(%rbp),%rax
    274a:	48 89 c7             	mov    %rax,%rdi
    274d:	e8 0e fc ff ff       	call   2360 <strlen@plt>
    2752:	89 45 ec             	mov    %eax,-0x14(%rbp)
    int base = 10;
    2755:	c7 45 f0 0a 00 00 00 	movl   $0xa,-0x10(%rbp)
    int c;

    end = args + len;
    275c:	8b 45 ec             	mov    -0x14(%rbp),%eax
    275f:	48 63 d0             	movslq %eax,%rdx
    2762:	48 8b 45 d8          	mov    -0x28(%rbp),%rax
    2766:	48 01 d0             	add    %rdx,%rax
    2769:	48 89 45 f8          	mov    %rax,-0x8(%rbp)
    if (args[0] == '0' && args[1] == 'x')
    276d:	48 8b 45 d8          	mov    -0x28(%rbp),%rax
    2771:	0f b6 00             	movzbl (%rax),%eax
    2774:	3c 30                	cmp    $0x30,%al
    2776:	0f 85 01 01 00 00    	jne    287d <HSM_TestArgs2Int+0x14e>
    277c:	48 8b 45 d8          	mov    -0x28(%rbp),%rax
    2780:	48 83 c0 01          	add    $0x1,%rax
    2784:	0f b6 00             	movzbl (%rax),%eax
    2787:	3c 78                	cmp    $0x78,%al
    2789:	0f 85 ee 00 00 00    	jne    287d <HSM_TestArgs2Int+0x14e>
    {
        base = 16;
    278f:	c7 45 f0 10 00 00 00 	movl   $0x10,-0x10(%rbp)
        args = &args[2];
    2796:	48 83 45 d8 02       	addq   $0x2,-0x28(%rbp)
        len -= 2;
    279b:	83 6d ec 02          	subl   $0x2,-0x14(%rbp)
    }

    for (; len > 0; len--, args++) {
    279f:	e9 d9 00 00 00       	jmp    287d <HSM_TestArgs2Int+0x14e>
        if (args >= end)
    27a4:	48 8b 45 d8          	mov    -0x28(%rbp),%rax
    27a8:	48 3b 45 f8          	cmp    -0x8(%rbp),%rax
    27ac:	72 0a                	jb     27b8 <HSM_TestArgs2Int+0x89>
            return -1;
    27ae:	b8 ff ff ff ff       	mov    $0xffffffff,%eax
    27b3:	e9 d2 00 00 00       	jmp    288a <HSM_TestArgs2Int+0x15b>

        if (base == 10)
    27b8:	83 7d f0 0a          	cmpl   $0xa,-0x10(%rbp)
    27bc:	75 26                	jne    27e4 <HSM_TestArgs2Int+0xb5>
        {
            c = (int)(*args - '0');
    27be:	48 8b 45 d8          	mov    -0x28(%rbp),%rax
    27c2:	0f b6 00             	movzbl (%rax),%eax
    27c5:	0f be c0             	movsbl %al,%eax
    27c8:	83 e8 30             	sub    $0x30,%eax
    27cb:	89 45 f4             	mov    %eax,-0xc(%rbp)
            if ((unsigned)c >= 10)
    27ce:	8b 45 f4             	mov    -0xc(%rbp),%eax
    27d1:	83 f8 09             	cmp    $0x9,%eax
    27d4:	0f 86 89 00 00 00    	jbe    2863 <HSM_TestArgs2Int+0x134>
            {
                return -1;
    27da:	b8 ff ff ff ff       	mov    $0xffffffff,%eax
    27df:	e9 a6 00 00 00       	jmp    288a <HSM_TestArgs2Int+0x15b>
            }
        }
        else
        {
            if (*args >= '0' && *args <= '9')
    27e4:	48 8b 45 d8          	mov    -0x28(%rbp),%rax
    27e8:	0f b6 00             	movzbl (%rax),%eax
    27eb:	3c 2f                	cmp    $0x2f,%al
    27ed:	7e 1d                	jle    280c <HSM_TestArgs2Int+0xdd>
    27ef:	48 8b 45 d8          	mov    -0x28(%rbp),%rax
    27f3:	0f b6 00             	movzbl (%rax),%eax
    27f6:	3c 39                	cmp    $0x39,%al
    27f8:	7f 12                	jg     280c <HSM_TestArgs2Int+0xdd>
            {
                c = (int)(*args - '0');
    27fa:	48 8b 45 d8          	mov    -0x28(%rbp),%rax
    27fe:	0f b6 00             	movzbl (%rax),%eax
    2801:	0f be c0             	movsbl %al,%eax
    2804:	83 e8 30             	sub    $0x30,%eax
    2807:	89 45 f4             	mov    %eax,-0xc(%rbp)
    280a:	eb 57                	jmp    2863 <HSM_TestArgs2Int+0x134>
            }
            else if (*args >= 'a' && *args <= 'f')
    280c:	48 8b 45 d8          	mov    -0x28(%rbp),%rax
    2810:	0f b6 00             	movzbl (%rax),%eax
    2813:	3c 60                	cmp    $0x60,%al
    2815:	7e 1d                	jle    2834 <HSM_TestArgs2Int+0x105>
    2817:	48 8b 45 d8          	mov    -0x28(%rbp),%rax
    281b:	0f b6 00             	movzbl (%rax),%eax
    281e:	3c 66                	cmp    $0x66,%al
    2820:	7f 12                	jg     2834 <HSM_TestArgs2Int+0x105>
            {
                c = (int)(*args - 'a') + 10;
    2822:	48 8b 45 d8          	mov    -0x28(%rbp),%rax
    2826:	0f b6 00             	movzbl (%rax),%eax
    2829:	0f be c0             	movsbl %al,%eax
    282c:	83 e8 57             	sub    $0x57,%eax
    282f:	89 45 f4             	mov    %eax,-0xc(%rbp)
    2832:	eb 2f                	jmp    2863 <HSM_TestArgs2Int+0x134>
            }
            else if (*args >= 'A' && *args <= 'F')
    2834:	48 8b 45 d8          	mov    -0x28(%rbp),%rax
    2838:	0f b6 00             	movzbl (%rax),%eax
    283b:	3c 40                	cmp    $0x40,%al
    283d:	7e 1d                	jle    285c <HSM_TestArgs2Int+0x12d>
    283f:	48 8b 45 d8          	mov    -0x28(%rbp),%rax
    2843:	0f b6 00             	movzbl (%rax),%eax
    2846:	3c 46                	cmp    $0x46,%al
    2848:	7f 12                	jg     285c <HSM_TestArgs2Int+0x12d>
            {
                c = (int)(*args - 'A') + 10;
    284a:	48 8b 45 d8          	mov    -0x28(%rbp),%rax
    284e:	0f b6 00             	movzbl (%rax),%eax
    2851:	0f be c0             	movsbl %al,%eax
    2854:	83 e8 37             	sub    $0x37,%eax
    2857:	89 45 f4             	mov    %eax,-0xc(%rbp)
    285a:	eb 07                	jmp    2863 <HSM_TestArgs2Int+0x134>
            }
            else
            {
                return -1;
    285c:	b8 ff ff ff ff       	mov    $0xffffffff,%eax
    2861:	eb 27                	jmp    288a <HSM_TestArgs2Int+0x15b>
            }
        }

        result = result * base + c;
    2863:	8b 45 e8             	mov    -0x18(%rbp),%eax
    2866:	0f af 45 f0          	imul   -0x10(%rbp),%eax
    286a:	89 c2                	mov    %eax,%edx
    286c:	8b 45 f4             	mov    -0xc(%rbp),%eax
    286f:	01 d0                	add    %edx,%eax
    2871:	89 45 e8             	mov    %eax,-0x18(%rbp)
    for (; len > 0; len--, args++) {
    2874:	83 6d ec 01          	subl   $0x1,-0x14(%rbp)
    2878:	48 83 45 d8 01       	addq   $0x1,-0x28(%rbp)
    287d:	83 7d ec 00          	cmpl   $0x0,-0x14(%rbp)
    2881:	0f 8f 1d ff ff ff    	jg     27a4 <HSM_TestArgs2Int+0x75>
    }
    return result;
    2887:	8b 45 e8             	mov    -0x18(%rbp),%eax
}
    288a:	c9                   	leave  
    288b:	c3                   	ret    

000000000000288c <ConfigCmd>:

static void ConfigCmd(void *param, int argc, const char **argv)
{
    288c:	f3 0f 1e fa          	endbr64 
    2890:	55                   	push   %rbp
    2891:	48 89 e5             	mov    %rsp,%rbp
    2894:	48 83 ec 60          	sub    $0x60,%rsp
    2898:	48 89 7d b8          	mov    %rdi,-0x48(%rbp)
    289c:	89 75 b4             	mov    %esi,-0x4c(%rbp)
    289f:	48 89 55 a8          	mov    %rdx,-0x58(%rbp)
    28a3:	64 48 8b 04 25 28 00 	mov    %fs:0x28,%rax
    28aa:	00 00 
    28ac:	48 89 45 f8          	mov    %rax,-0x8(%rbp)
    28b0:	31 c0                	xor    %eax,%eax
    uint32_t i;
    uint32_t Channel = 0U;
    28b2:	c7 45 c8 00 00 00 00 	movl   $0x0,-0x38(%rbp)
    uint32_t Temp = 0U;
    28b9:	c7 45 cc 00 00 00 00 	movl   $0x0,-0x34(%rbp)
    TIMER_ConfigType timeCfg = {
    28c0:	c7 45 d0 00 00 00 00 	movl   $0x0,-0x30(%rbp)
    28c7:	c7 45 d4 00 00 00 00 	movl   $0x0,-0x2c(%rbp)
    28ce:	c7 45 d8 01 00 00 00 	movl   $0x1,-0x28(%rbp)
    28d5:	48 8d 05 ac fd ff ff 	lea    -0x254(%rip),%rax        # 2688 <Timer_Callback>
    28dc:	48 89 45 e0          	mov    %rax,-0x20(%rbp)
    28e0:	c7 45 e8 00 00 00 00 	movl   $0x0,-0x18(%rbp)
        .chainModeEn  = DISABLE,
        .timerEn = DISABLE,
        .callBack = Timer_Callback,
    };

    for(i = 0U; i < (uint32_t)argc; i++)
    28e7:	c7 45 c4 00 00 00 00 	movl   $0x0,-0x3c(%rbp)
    28ee:	e9 5f 01 00 00       	jmp    2a52 <ConfigCmd+0x1c6>
    {
        if (0 == stricmp("-channel", argv[i]))
    28f3:	8b 45 c4             	mov    -0x3c(%rbp),%eax
    28f6:	48 8d 14 c5 00 00 00 	lea    0x0(,%rax,8),%rdx
    28fd:	00 
    28fe:	48 8b 45 a8          	mov    -0x58(%rbp),%rax
    2902:	48 01 d0             	add    %rdx,%rax
    2905:	48 8b 00             	mov    (%rax),%rax
    2908:	48 89 c6             	mov    %rax,%rsi
    290b:	48 8d 05 14 47 00 00 	lea    0x4714(%rip),%rax        # 7026 <_IO_stdin_used+0x26>
    2912:	48 89 c7             	mov    %rax,%rdi
    2915:	e8 f3 fc ff ff       	call   260d <stricmp>
    291a:	84 c0                	test   %al,%al
    291c:	75 62                	jne    2980 <ConfigCmd+0xf4>
        {
            Channel = atoi(argv[i+1]);
    291e:	8b 45 c4             	mov    -0x3c(%rbp),%eax
    2921:	83 c0 01             	add    $0x1,%eax
    2924:	89 c0                	mov    %eax,%eax
    2926:	48 8d 14 c5 00 00 00 	lea    0x0(,%rax,8),%rdx
    292d:	00 
    292e:	48 8b 45 a8          	mov    -0x58(%rbp),%rax
    2932:	48 01 d0             	add    %rdx,%rax
    2935:	48 8b 00             	mov    (%rax),%rax
    2938:	48 89 c7             	mov    %rax,%rdi
    293b:	e8 70 fb ff ff       	call   24b0 <atoi@plt>
    2940:	89 45 c8             	mov    %eax,-0x38(%rbp)
            i++;
    2943:	83 45 c4 01          	addl   $0x1,-0x3c(%rbp)
            DEVICE_ASSERT(Channel < 4);
    2947:	83 7d c8 03          	cmpl   $0x3,-0x38(%rbp)
    294b:	0f 86 fd 00 00 00    	jbe    2a4e <ConfigCmd+0x1c2>
    2951:	b9 93 00 00 00       	mov    $0x93,%ecx
    2956:	48 8d 05 d2 46 00 00 	lea    0x46d2(%rip),%rax        # 702f <_IO_stdin_used+0x2f>
    295d:	48 89 c2             	mov    %rax,%rdx
    2960:	48 8d 05 df 46 00 00 	lea    0x46df(%rip),%rax        # 7046 <_IO_stdin_used+0x46>
    2967:	48 89 c6             	mov    %rax,%rsi
    296a:	48 8d 05 e7 46 00 00 	lea    0x46e7(%rip),%rax        # 7058 <_IO_stdin_used+0x58>
    2971:	48 89 c7             	mov    %rax,%rdi
    2974:	b8 00 00 00 00       	mov    $0x0,%eax
    2979:	e8 22 fa ff ff       	call   23a0 <printf@plt>
    297e:	eb fe                	jmp    297e <ConfigCmd+0xf2>
        }
        else if (0 == stricmp("-link", argv[i]))
    2980:	8b 45 c4             	mov    -0x3c(%rbp),%eax
    2983:	48 8d 14 c5 00 00 00 	lea    0x0(,%rax,8),%rdx
    298a:	00 
    298b:	48 8b 45 a8          	mov    -0x58(%rbp),%rax
    298f:	48 01 d0             	add    %rdx,%rax
    2992:	48 8b 00             	mov    (%rax),%rax
    2995:	48 89 c6             	mov    %rax,%rsi
    2998:	48 8d 05 e1 46 00 00 	lea    0x46e1(%rip),%rax        # 7080 <_IO_stdin_used+0x80>
    299f:	48 89 c7             	mov    %rax,%rdi
    29a2:	e8 66 fc ff ff       	call   260d <stricmp>
    29a7:	84 c0                	test   %al,%al
    29a9:	75 38                	jne    29e3 <ConfigCmd+0x157>
        {
            Temp = atoi(argv[i+1]);
    29ab:	8b 45 c4             	mov    -0x3c(%rbp),%eax
    29ae:	83 c0 01             	add    $0x1,%eax
    29b1:	89 c0                	mov    %eax,%eax
    29b3:	48 8d 14 c5 00 00 00 	lea    0x0(,%rax,8),%rdx
    29ba:	00 
    29bb:	48 8b 45 a8          	mov    -0x58(%rbp),%rax
    29bf:	48 01 d0             	add    %rdx,%rax
    29c2:	48 8b 00             	mov    (%rax),%rax
    29c5:	48 89 c7             	mov    %rax,%rdi
    29c8:	e8 e3 fa ff ff       	call   24b0 <atoi@plt>
    29cd:	89 45 cc             	mov    %eax,-0x34(%rbp)
            i++;
    29d0:	83 45 c4 01          	addl   $0x1,-0x3c(%rbp)
            if (1U == Temp)
    29d4:	83 7d cc 01          	cmpl   $0x1,-0x34(%rbp)
    29d8:	75 74                	jne    2a4e <ConfigCmd+0x1c2>
            {
                timeCfg.chainModeEn = ENABLE;
    29da:	c7 45 d4 01 00 00 00 	movl   $0x1,-0x2c(%rbp)
    29e1:	eb 6b                	jmp    2a4e <ConfigCmd+0x1c2>
            }
        }
        else if (0 == stricmp("-timeout", argv[i])) /* RTC doesn't support.*/
    29e3:	8b 45 c4             	mov    -0x3c(%rbp),%eax
    29e6:	48 8d 14 c5 00 00 00 	lea    0x0(,%rax,8),%rdx
    29ed:	00 
    29ee:	48 8b 45 a8          	mov    -0x58(%rbp),%rax
    29f2:	48 01 d0             	add    %rdx,%rax
    29f5:	48 8b 00             	mov    (%rax),%rax
    29f8:	48 89 c6             	mov    %rax,%rsi
    29fb:	48 8d 05 84 46 00 00 	lea    0x4684(%rip),%rax        # 7086 <_IO_stdin_used+0x86>
    2a02:	48 89 c7             	mov    %rax,%rdi
    2a05:	e8 03 fc ff ff       	call   260d <stricmp>
    2a0a:	84 c0                	test   %al,%al
    2a0c:	75 31                	jne    2a3f <ConfigCmd+0x1b3>
        {
            Temp = HSM_TestArgs2Int(argv[i+1]);
    2a0e:	8b 45 c4             	mov    -0x3c(%rbp),%eax
    2a11:	83 c0 01             	add    $0x1,%eax
    2a14:	89 c0                	mov    %eax,%eax
    2a16:	48 8d 14 c5 00 00 00 	lea    0x0(,%rax,8),%rdx
    2a1d:	00 
    2a1e:	48 8b 45 a8          	mov    -0x58(%rbp),%rax
    2a22:	48 01 d0             	add    %rdx,%rax
    2a25:	48 8b 00             	mov    (%rax),%rax
    2a28:	48 89 c7             	mov    %rax,%rdi
    2a2b:	e8 ff fc ff ff       	call   272f <HSM_TestArgs2Int>
    2a30:	89 45 cc             	mov    %eax,-0x34(%rbp)
            i++;
    2a33:	83 45 c4 01          	addl   $0x1,-0x3c(%rbp)
            timeCfg.periodValue = Temp;
    2a37:	8b 45 cc             	mov    -0x34(%rbp),%eax
    2a3a:	89 45 d0             	mov    %eax,-0x30(%rbp)
    2a3d:	eb 0f                	jmp    2a4e <ConfigCmd+0x1c2>
        }
        else
        {
            DEBUGMSG(DEBUG_ZONE_WARNING, ("Config unkonw param.\r\n"));
    2a3f:	48 8d 05 49 46 00 00 	lea    0x4649(%rip),%rax        # 708f <_IO_stdin_used+0x8f>
    2a46:	48 89 c7             	mov    %rax,%rdi
    2a49:	e8 d2 f8 ff ff       	call   2320 <puts@plt>
    for(i = 0U; i < (uint32_t)argc; i++)
    2a4e:	83 45 c4 01          	addl   $0x1,-0x3c(%rbp)
    2a52:	8b 45 b4             	mov    -0x4c(%rbp),%eax
    2a55:	39 45 c4             	cmp    %eax,-0x3c(%rbp)
    2a58:	0f 82 95 fe ff ff    	jb     28f3 <ConfigCmd+0x67>
        }
    }

    TIMER_Init(g_TIMERCHx[Channel], &timeCfg);
    2a5e:	8b 45 c8             	mov    -0x38(%rbp),%eax
    2a61:	48 8d 14 c5 00 00 00 	lea    0x0(,%rax,8),%rdx
    2a68:	00 
    2a69:	48 8d 05 d0 85 00 00 	lea    0x85d0(%rip),%rax        # b040 <g_TIMERCHx>
    2a70:	48 8b 04 02          	mov    (%rdx,%rax,1),%rax
    2a74:	48 8d 55 d0          	lea    -0x30(%rbp),%rdx
    2a78:	48 89 d6             	mov    %rdx,%rsi
    2a7b:	48 89 c7             	mov    %rax,%rdi
    2a7e:	e8 71 07 00 00       	call   31f4 <TIMER_Init>
    DEBUGMSG(DEBUG_ZONE_INFO, ("Timer(%d) Timeout(%d) \r\n",  Channel, timeCfg.periodValue));
    2a83:	8b 55 d0             	mov    -0x30(%rbp),%edx
    2a86:	8b 45 c8             	mov    -0x38(%rbp),%eax
    2a89:	89 c6                	mov    %eax,%esi
    2a8b:	48 8d 05 13 46 00 00 	lea    0x4613(%rip),%rax        # 70a5 <_IO_stdin_used+0xa5>
    2a92:	48 89 c7             	mov    %rax,%rdi
    2a95:	b8 00 00 00 00       	mov    $0x0,%eax
    2a9a:	e8 01 f9 ff ff       	call   23a0 <printf@plt>
}
    2a9f:	90                   	nop
    2aa0:	48 8b 45 f8          	mov    -0x8(%rbp),%rax
    2aa4:	64 48 2b 04 25 28 00 	sub    %fs:0x28,%rax
    2aab:	00 00 
    2aad:	74 05                	je     2ab4 <ConfigCmd+0x228>
    2aaf:	e8 bc f8 ff ff       	call   2370 <__stack_chk_fail@plt>
    2ab4:	c9                   	leave  
    2ab5:	c3                   	ret    

0000000000002ab6 <StartCmd>:

static void StartCmd(void *param, int argc, const char **argv)
{
    2ab6:	f3 0f 1e fa          	endbr64 
    2aba:	55                   	push   %rbp
    2abb:	48 89 e5             	mov    %rsp,%rbp
    2abe:	48 83 ec 30          	sub    $0x30,%rsp
    2ac2:	48 89 7d e8          	mov    %rdi,-0x18(%rbp)
    2ac6:	89 75 e4             	mov    %esi,-0x1c(%rbp)
    2ac9:	48 89 55 d8          	mov    %rdx,-0x28(%rbp)
    uint32_t i;
    uint32_t Channel = 0U;
    2acd:	c7 45 f8 00 00 00 00 	movl   $0x0,-0x8(%rbp)
    uint32_t Log = 1U;
    2ad4:	c7 45 fc 01 00 00 00 	movl   $0x1,-0x4(%rbp)

    printf("runs here:%d.\n", __LINE__);
    2adb:	be b4 00 00 00       	mov    $0xb4,%esi
    2ae0:	48 8d 05 d7 45 00 00 	lea    0x45d7(%rip),%rax        # 70be <_IO_stdin_used+0xbe>
    2ae7:	48 89 c7             	mov    %rax,%rdi
    2aea:	b8 00 00 00 00       	mov    $0x0,%eax
    2aef:	e8 ac f8 ff ff       	call   23a0 <printf@plt>
    for(i = 0U; i < (uint32_t)argc; i++)
    2af4:	c7 45 f4 00 00 00 00 	movl   $0x0,-0xc(%rbp)
    2afb:	e9 f6 00 00 00       	jmp    2bf6 <StartCmd+0x140>
    {
        if (0 == stricmp("-channel", argv[i]))
    2b00:	8b 45 f4             	mov    -0xc(%rbp),%eax
    2b03:	48 8d 14 c5 00 00 00 	lea    0x0(,%rax,8),%rdx
    2b0a:	00 
    2b0b:	48 8b 45 d8          	mov    -0x28(%rbp),%rax
    2b0f:	48 01 d0             	add    %rdx,%rax
    2b12:	48 8b 00             	mov    (%rax),%rax
    2b15:	48 89 c6             	mov    %rax,%rsi
    2b18:	48 8d 05 07 45 00 00 	lea    0x4507(%rip),%rax        # 7026 <_IO_stdin_used+0x26>
    2b1f:	48 89 c7             	mov    %rax,%rdi
    2b22:	e8 e6 fa ff ff       	call   260d <stricmp>
    2b27:	84 c0                	test   %al,%al
    2b29:	75 62                	jne    2b8d <StartCmd+0xd7>
        {
            Channel = atoi(argv[i+1]);
    2b2b:	8b 45 f4             	mov    -0xc(%rbp),%eax
    2b2e:	83 c0 01             	add    $0x1,%eax
    2b31:	89 c0                	mov    %eax,%eax
    2b33:	48 8d 14 c5 00 00 00 	lea    0x0(,%rax,8),%rdx
    2b3a:	00 
    2b3b:	48 8b 45 d8          	mov    -0x28(%rbp),%rax
    2b3f:	48 01 d0             	add    %rdx,%rax
    2b42:	48 8b 00             	mov    (%rax),%rax
    2b45:	48 89 c7             	mov    %rax,%rdi
    2b48:	e8 63 f9 ff ff       	call   24b0 <atoi@plt>
    2b4d:	89 45 f8             	mov    %eax,-0x8(%rbp)
            i++;
    2b50:	83 45 f4 01          	addl   $0x1,-0xc(%rbp)
            DEVICE_ASSERT(Channel < 4);
    2b54:	83 7d f8 03          	cmpl   $0x3,-0x8(%rbp)
    2b58:	0f 86 94 00 00 00    	jbe    2bf2 <StartCmd+0x13c>
    2b5e:	b9 bb 00 00 00       	mov    $0xbb,%ecx
    2b63:	48 8d 05 c5 44 00 00 	lea    0x44c5(%rip),%rax        # 702f <_IO_stdin_used+0x2f>
    2b6a:	48 89 c2             	mov    %rax,%rdx
    2b6d:	48 8d 05 d2 44 00 00 	lea    0x44d2(%rip),%rax        # 7046 <_IO_stdin_used+0x46>
    2b74:	48 89 c6             	mov    %rax,%rsi
    2b77:	48 8d 05 da 44 00 00 	lea    0x44da(%rip),%rax        # 7058 <_IO_stdin_used+0x58>
    2b7e:	48 89 c7             	mov    %rax,%rdi
    2b81:	b8 00 00 00 00       	mov    $0x0,%eax
    2b86:	e8 15 f8 ff ff       	call   23a0 <printf@plt>
    2b8b:	eb fe                	jmp    2b8b <StartCmd+0xd5>
        }
        else if (0 == stricmp("-log", argv[i]))
    2b8d:	8b 45 f4             	mov    -0xc(%rbp),%eax
    2b90:	48 8d 14 c5 00 00 00 	lea    0x0(,%rax,8),%rdx
    2b97:	00 
    2b98:	48 8b 45 d8          	mov    -0x28(%rbp),%rax
    2b9c:	48 01 d0             	add    %rdx,%rax
    2b9f:	48 8b 00             	mov    (%rax),%rax
    2ba2:	48 89 c6             	mov    %rax,%rsi
    2ba5:	48 8d 05 21 45 00 00 	lea    0x4521(%rip),%rax        # 70cd <_IO_stdin_used+0xcd>
    2bac:	48 89 c7             	mov    %rax,%rdi
    2baf:	e8 59 fa ff ff       	call   260d <stricmp>
    2bb4:	84 c0                	test   %al,%al
    2bb6:	75 2b                	jne    2be3 <StartCmd+0x12d>
        {
            Log = atoi(argv[i+1]);
    2bb8:	8b 45 f4             	mov    -0xc(%rbp),%eax
    2bbb:	83 c0 01             	add    $0x1,%eax
    2bbe:	89 c0                	mov    %eax,%eax
    2bc0:	48 8d 14 c5 00 00 00 	lea    0x0(,%rax,8),%rdx
    2bc7:	00 
    2bc8:	48 8b 45 d8          	mov    -0x28(%rbp),%rax
    2bcc:	48 01 d0             	add    %rdx,%rax
    2bcf:	48 8b 00             	mov    (%rax),%rax
    2bd2:	48 89 c7             	mov    %rax,%rdi
    2bd5:	e8 d6 f8 ff ff       	call   24b0 <atoi@plt>
    2bda:	89 45 fc             	mov    %eax,-0x4(%rbp)
            i++;
    2bdd:	83 45 f4 01          	addl   $0x1,-0xc(%rbp)
    2be1:	eb 0f                	jmp    2bf2 <StartCmd+0x13c>
        }
        else
        {
            DEBUGMSG(DEBUG_ZONE_WARNING, ("Config unkonw param.\r\n"));
    2be3:	48 8d 05 a5 44 00 00 	lea    0x44a5(%rip),%rax        # 708f <_IO_stdin_used+0x8f>
    2bea:	48 89 c7             	mov    %rax,%rdi
    2bed:	e8 2e f7 ff ff       	call   2320 <puts@plt>
    for(i = 0U; i < (uint32_t)argc; i++)
    2bf2:	83 45 f4 01          	addl   $0x1,-0xc(%rbp)
    2bf6:	8b 45 e4             	mov    -0x1c(%rbp),%eax
    2bf9:	39 45 f4             	cmp    %eax,-0xc(%rbp)
    2bfc:	0f 82 fe fe ff ff    	jb     2b00 <StartCmd+0x4a>
        }
    }

    g_TimerLog[Channel] = Log;
    2c02:	8b 45 fc             	mov    -0x4(%rbp),%eax
    2c05:	89 c1                	mov    %eax,%ecx
    2c07:	8b 45 f8             	mov    -0x8(%rbp),%eax
    2c0a:	48 8d 15 0f 84 00 00 	lea    0x840f(%rip),%rdx        # b020 <g_TimerLog>
    2c11:	88 0c 10             	mov    %cl,(%rax,%rdx,1)
    TIMER_SetChannel(g_TIMERCHx[Channel], ENABLE);
    2c14:	8b 45 f8             	mov    -0x8(%rbp),%eax
    2c17:	48 8d 14 c5 00 00 00 	lea    0x0(,%rax,8),%rdx
    2c1e:	00 
    2c1f:	48 8d 05 1a 84 00 00 	lea    0x841a(%rip),%rax        # b040 <g_TIMERCHx>
    2c26:	48 8b 04 02          	mov    (%rdx,%rax,1),%rax
    2c2a:	be 01 00 00 00       	mov    $0x1,%esi
    2c2f:	48 89 c7             	mov    %rax,%rdi
    2c32:	e8 b2 f9 ff ff       	call   25e9 <TIMER_SetChannel>
}
    2c37:	90                   	nop
    2c38:	c9                   	leave  
    2c39:	c3                   	ret    

0000000000002c3a <StopCmd>:

static void StopCmd(void *param, int argc, const char **argv)
{
    2c3a:	f3 0f 1e fa          	endbr64 
    2c3e:	55                   	push   %rbp
    2c3f:	48 89 e5             	mov    %rsp,%rbp
    2c42:	48 83 ec 30          	sub    $0x30,%rsp
    2c46:	48 89 7d e8          	mov    %rdi,-0x18(%rbp)
    2c4a:	89 75 e4             	mov    %esi,-0x1c(%rbp)
    2c4d:	48 89 55 d8          	mov    %rdx,-0x28(%rbp)
    uint32_t i;
    uint32_t Channel = 0U;
    2c51:	c7 45 fc 00 00 00 00 	movl   $0x0,-0x4(%rbp)

    for(i = 0U; i < (uint32_t)argc; i++)
    2c58:	c7 45 f8 00 00 00 00 	movl   $0x0,-0x8(%rbp)
    2c5f:	e9 9c 00 00 00       	jmp    2d00 <StopCmd+0xc6>
    {
        if (0 == stricmp("-channel", argv[i]))
    2c64:	8b 45 f8             	mov    -0x8(%rbp),%eax
    2c67:	48 8d 14 c5 00 00 00 	lea    0x0(,%rax,8),%rdx
    2c6e:	00 
    2c6f:	48 8b 45 d8          	mov    -0x28(%rbp),%rax
    2c73:	48 01 d0             	add    %rdx,%rax
    2c76:	48 8b 00             	mov    (%rax),%rax
    2c79:	48 89 c6             	mov    %rax,%rsi
    2c7c:	48 8d 05 a3 43 00 00 	lea    0x43a3(%rip),%rax        # 7026 <_IO_stdin_used+0x26>
    2c83:	48 89 c7             	mov    %rax,%rdi
    2c86:	e8 82 f9 ff ff       	call   260d <stricmp>
    2c8b:	84 c0                	test   %al,%al
    2c8d:	75 5e                	jne    2ced <StopCmd+0xb3>
        {
            Channel = atoi(argv[i+1]);
    2c8f:	8b 45 f8             	mov    -0x8(%rbp),%eax
    2c92:	83 c0 01             	add    $0x1,%eax
    2c95:	89 c0                	mov    %eax,%eax
    2c97:	48 8d 14 c5 00 00 00 	lea    0x0(,%rax,8),%rdx
    2c9e:	00 
    2c9f:	48 8b 45 d8          	mov    -0x28(%rbp),%rax
    2ca3:	48 01 d0             	add    %rdx,%rax
    2ca6:	48 8b 00             	mov    (%rax),%rax
    2ca9:	48 89 c7             	mov    %rax,%rdi
    2cac:	e8 ff f7 ff ff       	call   24b0 <atoi@plt>
    2cb1:	89 45 fc             	mov    %eax,-0x4(%rbp)
            i++;
    2cb4:	83 45 f8 01          	addl   $0x1,-0x8(%rbp)
            DEVICE_ASSERT(Channel < 4);
    2cb8:	83 7d fc 03          	cmpl   $0x3,-0x4(%rbp)
    2cbc:	76 3e                	jbe    2cfc <StopCmd+0xc2>
    2cbe:	b9 d7 00 00 00       	mov    $0xd7,%ecx
    2cc3:	48 8d 05 65 43 00 00 	lea    0x4365(%rip),%rax        # 702f <_IO_stdin_used+0x2f>
    2cca:	48 89 c2             	mov    %rax,%rdx
    2ccd:	48 8d 05 72 43 00 00 	lea    0x4372(%rip),%rax        # 7046 <_IO_stdin_used+0x46>
    2cd4:	48 89 c6             	mov    %rax,%rsi
    2cd7:	48 8d 05 7a 43 00 00 	lea    0x437a(%rip),%rax        # 7058 <_IO_stdin_used+0x58>
    2cde:	48 89 c7             	mov    %rax,%rdi
    2ce1:	b8 00 00 00 00       	mov    $0x0,%eax
    2ce6:	e8 b5 f6 ff ff       	call   23a0 <printf@plt>
    2ceb:	eb fe                	jmp    2ceb <StopCmd+0xb1>
        }
        else
        {
            DEBUGMSG(DEBUG_ZONE_WARNING, ("Config unkonw param.\r\n"));
    2ced:	48 8d 05 9b 43 00 00 	lea    0x439b(%rip),%rax        # 708f <_IO_stdin_used+0x8f>
    2cf4:	48 89 c7             	mov    %rax,%rdi
    2cf7:	e8 24 f6 ff ff       	call   2320 <puts@plt>
    for(i = 0U; i < (uint32_t)argc; i++)
    2cfc:	83 45 f8 01          	addl   $0x1,-0x8(%rbp)
    2d00:	8b 45 e4             	mov    -0x1c(%rbp),%eax
    2d03:	39 45 f8             	cmp    %eax,-0x8(%rbp)
    2d06:	0f 82 58 ff ff ff    	jb     2c64 <StopCmd+0x2a>
        }
    }

    TIMER_SetChannel(g_TIMERCHx[Channel], DISABLE);
    2d0c:	8b 45 fc             	mov    -0x4(%rbp),%eax
    2d0f:	48 8d 14 c5 00 00 00 	lea    0x0(,%rax,8),%rdx
    2d16:	00 
    2d17:	48 8d 05 22 83 00 00 	lea    0x8322(%rip),%rax        # b040 <g_TIMERCHx>
    2d1e:	48 8b 04 02          	mov    (%rdx,%rax,1),%rax
    2d22:	be 00 00 00 00       	mov    $0x0,%esi
    2d27:	48 89 c7             	mov    %rax,%rdi
    2d2a:	e8 ba f8 ff ff       	call   25e9 <TIMER_SetChannel>
}
    2d2f:	90                   	nop
    2d30:	c9                   	leave  
    2d31:	c3                   	ret    

0000000000002d32 <ReadValueCmd>:

static void ReadValueCmd(void *param, int argc, const char **argv)
{
    2d32:	f3 0f 1e fa          	endbr64 
    2d36:	55                   	push   %rbp
    2d37:	48 89 e5             	mov    %rsp,%rbp
    2d3a:	48 83 ec 30          	sub    $0x30,%rsp
    2d3e:	48 89 7d e8          	mov    %rdi,-0x18(%rbp)
    2d42:	89 75 e4             	mov    %esi,-0x1c(%rbp)
    2d45:	48 89 55 d8          	mov    %rdx,-0x28(%rbp)
    uint32_t i;
    uint32_t Channel = 0U;
    2d49:	c7 45 f8 00 00 00 00 	movl   $0x0,-0x8(%rbp)
    uint32_t Value = 0U;
    2d50:	c7 45 fc 00 00 00 00 	movl   $0x0,-0x4(%rbp)
    for(i = 0U; i < (uint32_t)argc; i++)
    2d57:	c7 45 f4 00 00 00 00 	movl   $0x0,-0xc(%rbp)
    2d5e:	e9 9c 00 00 00       	jmp    2dff <ReadValueCmd+0xcd>
    {
        if (0 == stricmp("-channel", argv[i]))
    2d63:	8b 45 f4             	mov    -0xc(%rbp),%eax
    2d66:	48 8d 14 c5 00 00 00 	lea    0x0(,%rax,8),%rdx
    2d6d:	00 
    2d6e:	48 8b 45 d8          	mov    -0x28(%rbp),%rax
    2d72:	48 01 d0             	add    %rdx,%rax
    2d75:	48 8b 00             	mov    (%rax),%rax
    2d78:	48 89 c6             	mov    %rax,%rsi
    2d7b:	48 8d 05 a4 42 00 00 	lea    0x42a4(%rip),%rax        # 7026 <_IO_stdin_used+0x26>
    2d82:	48 89 c7             	mov    %rax,%rdi
    2d85:	e8 83 f8 ff ff       	call   260d <stricmp>
    2d8a:	84 c0                	test   %al,%al
    2d8c:	75 5e                	jne    2dec <ReadValueCmd+0xba>
        {
            Channel = atoi(argv[i+1]);
    2d8e:	8b 45 f4             	mov    -0xc(%rbp),%eax
    2d91:	83 c0 01             	add    $0x1,%eax
    2d94:	89 c0                	mov    %eax,%eax
    2d96:	48 8d 14 c5 00 00 00 	lea    0x0(,%rax,8),%rdx
    2d9d:	00 
    2d9e:	48 8b 45 d8          	mov    -0x28(%rbp),%rax
    2da2:	48 01 d0             	add    %rdx,%rax
    2da5:	48 8b 00             	mov    (%rax),%rax
    2da8:	48 89 c7             	mov    %rax,%rdi
    2dab:	e8 00 f7 ff ff       	call   24b0 <atoi@plt>
    2db0:	89 45 f8             	mov    %eax,-0x8(%rbp)
            i++;
    2db3:	83 45 f4 01          	addl   $0x1,-0xc(%rbp)
            DEVICE_ASSERT(Channel < 4);
    2db7:	83 7d f8 03          	cmpl   $0x3,-0x8(%rbp)
    2dbb:	76 3e                	jbe    2dfb <ReadValueCmd+0xc9>
    2dbd:	b9 ed 00 00 00       	mov    $0xed,%ecx
    2dc2:	48 8d 05 66 42 00 00 	lea    0x4266(%rip),%rax        # 702f <_IO_stdin_used+0x2f>
    2dc9:	48 89 c2             	mov    %rax,%rdx
    2dcc:	48 8d 05 73 42 00 00 	lea    0x4273(%rip),%rax        # 7046 <_IO_stdin_used+0x46>
    2dd3:	48 89 c6             	mov    %rax,%rsi
    2dd6:	48 8d 05 7b 42 00 00 	lea    0x427b(%rip),%rax        # 7058 <_IO_stdin_used+0x58>
    2ddd:	48 89 c7             	mov    %rax,%rdi
    2de0:	b8 00 00 00 00       	mov    $0x0,%eax
    2de5:	e8 b6 f5 ff ff       	call   23a0 <printf@plt>
    2dea:	eb fe                	jmp    2dea <ReadValueCmd+0xb8>
        }
        else
        {
            DEBUGMSG(DEBUG_ZONE_WARNING, ("Config unkonw param.\r\n"));
    2dec:	48 8d 05 9c 42 00 00 	lea    0x429c(%rip),%rax        # 708f <_IO_stdin_used+0x8f>
    2df3:	48 89 c7             	mov    %rax,%rdi
    2df6:	e8 25 f5 ff ff       	call   2320 <puts@plt>
    for(i = 0U; i < (uint32_t)argc; i++)
    2dfb:	83 45 f4 01          	addl   $0x1,-0xc(%rbp)
    2dff:	8b 45 e4             	mov    -0x1c(%rbp),%eax
    2e02:	39 45 f4             	cmp    %eax,-0xc(%rbp)
    2e05:	0f 82 58 ff ff ff    	jb     2d63 <ReadValueCmd+0x31>
        }
    }

    Value = TIMER_GetCurrentValue(g_TIMERCHx[Channel]);
    2e0b:	8b 45 f8             	mov    -0x8(%rbp),%eax
    2e0e:	48 8d 14 c5 00 00 00 	lea    0x0(,%rax,8),%rdx
    2e15:	00 
    2e16:	48 8d 05 23 82 00 00 	lea    0x8223(%rip),%rax        # b040 <g_TIMERCHx>
    2e1d:	48 8b 04 02          	mov    (%rdx,%rax,1),%rax
    2e21:	8b 40 04             	mov    0x4(%rax),%eax
    2e24:	89 45 fc             	mov    %eax,-0x4(%rbp)
    DEBUGMSG(DEBUG_ZONE_DEBUG, ("TO_Count(%d), CurrentValue(%d).\r\n", g_TimeoutCount[Channel], Value));
    2e27:	8b 45 f8             	mov    -0x8(%rbp),%eax
    2e2a:	48 8d 14 85 00 00 00 	lea    0x0(,%rax,4),%rdx
    2e31:	00 
    2e32:	48 8d 05 77 82 00 00 	lea    0x8277(%rip),%rax        # b0b0 <g_TimeoutCount>
    2e39:	8b 04 02             	mov    (%rdx,%rax,1),%eax
    2e3c:	8b 55 fc             	mov    -0x4(%rbp),%edx
    2e3f:	89 c6                	mov    %eax,%esi
    2e41:	48 8d 05 90 42 00 00 	lea    0x4290(%rip),%rax        # 70d8 <_IO_stdin_used+0xd8>
    2e48:	48 89 c7             	mov    %rax,%rdi
    2e4b:	b8 00 00 00 00       	mov    $0x0,%eax
    2e50:	e8 4b f5 ff ff       	call   23a0 <printf@plt>
}
    2e55:	90                   	nop
    2e56:	c9                   	leave  
    2e57:	c3                   	ret    

0000000000002e58 <DeInitChannelCmd>:

static void DeInitChannelCmd(void *param, int argc, const char **argv)
{
    2e58:	f3 0f 1e fa          	endbr64 
    2e5c:	55                   	push   %rbp
    2e5d:	48 89 e5             	mov    %rsp,%rbp
    2e60:	48 83 ec 30          	sub    $0x30,%rsp
    2e64:	48 89 7d e8          	mov    %rdi,-0x18(%rbp)
    2e68:	89 75 e4             	mov    %esi,-0x1c(%rbp)
    2e6b:	48 89 55 d8          	mov    %rdx,-0x28(%rbp)
    uint32_t i;
    uint32_t Channel = 0U;
    2e6f:	c7 45 fc 00 00 00 00 	movl   $0x0,-0x4(%rbp)
    for(i = 0U; i < (uint32_t)argc; i++)
    2e76:	c7 45 f8 00 00 00 00 	movl   $0x0,-0x8(%rbp)
    2e7d:	e9 9c 00 00 00       	jmp    2f1e <DeInitChannelCmd+0xc6>
    {
        if (0 == stricmp("-channel", argv[i]))
    2e82:	8b 45 f8             	mov    -0x8(%rbp),%eax
    2e85:	48 8d 14 c5 00 00 00 	lea    0x0(,%rax,8),%rdx
    2e8c:	00 
    2e8d:	48 8b 45 d8          	mov    -0x28(%rbp),%rax
    2e91:	48 01 d0             	add    %rdx,%rax
    2e94:	48 8b 00             	mov    (%rax),%rax
    2e97:	48 89 c6             	mov    %rax,%rsi
    2e9a:	48 8d 05 85 41 00 00 	lea    0x4185(%rip),%rax        # 7026 <_IO_stdin_used+0x26>
    2ea1:	48 89 c7             	mov    %rax,%rdi
    2ea4:	e8 64 f7 ff ff       	call   260d <stricmp>
    2ea9:	84 c0                	test   %al,%al
    2eab:	75 5e                	jne    2f0b <DeInitChannelCmd+0xb3>
        {
            Channel = atoi(argv[i+1]);
    2ead:	8b 45 f8             	mov    -0x8(%rbp),%eax
    2eb0:	83 c0 01             	add    $0x1,%eax
    2eb3:	89 c0                	mov    %eax,%eax
    2eb5:	48 8d 14 c5 00 00 00 	lea    0x0(,%rax,8),%rdx
    2ebc:	00 
    2ebd:	48 8b 45 d8          	mov    -0x28(%rbp),%rax
    2ec1:	48 01 d0             	add    %rdx,%rax
    2ec4:	48 8b 00             	mov    (%rax),%rax
    2ec7:	48 89 c7             	mov    %rax,%rdi
    2eca:	e8 e1 f5 ff ff       	call   24b0 <atoi@plt>
    2ecf:	89 45 fc             	mov    %eax,-0x4(%rbp)
            i++;
    2ed2:	83 45 f8 01          	addl   $0x1,-0x8(%rbp)
            DEVICE_ASSERT(Channel < 4);
    2ed6:	83 7d fc 03          	cmpl   $0x3,-0x4(%rbp)
    2eda:	76 3e                	jbe    2f1a <DeInitChannelCmd+0xc2>
    2edc:	b9 03 01 00 00       	mov    $0x103,%ecx
    2ee1:	48 8d 05 47 41 00 00 	lea    0x4147(%rip),%rax        # 702f <_IO_stdin_used+0x2f>
    2ee8:	48 89 c2             	mov    %rax,%rdx
    2eeb:	48 8d 05 54 41 00 00 	lea    0x4154(%rip),%rax        # 7046 <_IO_stdin_used+0x46>
    2ef2:	48 89 c6             	mov    %rax,%rsi
    2ef5:	48 8d 05 5c 41 00 00 	lea    0x415c(%rip),%rax        # 7058 <_IO_stdin_used+0x58>
    2efc:	48 89 c7             	mov    %rax,%rdi
    2eff:	b8 00 00 00 00       	mov    $0x0,%eax
    2f04:	e8 97 f4 ff ff       	call   23a0 <printf@plt>
    2f09:	eb fe                	jmp    2f09 <DeInitChannelCmd+0xb1>
        }
        else
        {
            DEBUGMSG(DEBUG_ZONE_WARNING, ("Config unkonw param.\r\n"));
    2f0b:	48 8d 05 7d 41 00 00 	lea    0x417d(%rip),%rax        # 708f <_IO_stdin_used+0x8f>
    2f12:	48 89 c7             	mov    %rax,%rdi
    2f15:	e8 06 f4 ff ff       	call   2320 <puts@plt>
    for(i = 0U; i < (uint32_t)argc; i++)
    2f1a:	83 45 f8 01          	addl   $0x1,-0x8(%rbp)
    2f1e:	8b 45 e4             	mov    -0x1c(%rbp),%eax
    2f21:	39 45 f8             	cmp    %eax,-0x8(%rbp)
    2f24:	0f 82 58 ff ff ff    	jb     2e82 <DeInitChannelCmd+0x2a>
        }
    }

   TIMER_DeInitChannel(g_TIMERCHx[Channel]);
    2f2a:	8b 45 fc             	mov    -0x4(%rbp),%eax
    2f2d:	48 8d 14 c5 00 00 00 	lea    0x0(,%rax,8),%rdx
    2f34:	00 
    2f35:	48 8d 05 04 81 00 00 	lea    0x8104(%rip),%rax        # b040 <g_TIMERCHx>
    2f3c:	48 8b 04 02          	mov    (%rdx,%rax,1),%rax
    2f40:	48 89 c7             	mov    %rax,%rdi
    2f43:	e8 f7 03 00 00       	call   333f <TIMER_DeInitChannel>
    DEBUGMSG(DEBUG_ZONE_DEBUG, ("DeInitChannel(%d).\r\n", Channel));
    2f48:	8b 45 fc             	mov    -0x4(%rbp),%eax
    2f4b:	89 c6                	mov    %eax,%esi
    2f4d:	48 8d 05 a6 41 00 00 	lea    0x41a6(%rip),%rax        # 70fa <_IO_stdin_used+0xfa>
    2f54:	48 89 c7             	mov    %rax,%rdi
    2f57:	b8 00 00 00 00       	mov    $0x0,%eax
    2f5c:	e8 3f f4 ff ff       	call   23a0 <printf@plt>
}
    2f61:	90                   	nop
    2f62:	c9                   	leave  
    2f63:	c3                   	ret    

0000000000002f64 <DeInitCmd>:

static void DeInitCmd(void *param, int argc, const char **argv)
{
    2f64:	f3 0f 1e fa          	endbr64 
    2f68:	55                   	push   %rbp
    2f69:	48 89 e5             	mov    %rsp,%rbp
    2f6c:	48 83 ec 20          	sub    $0x20,%rsp
    2f70:	48 89 7d f8          	mov    %rdi,-0x8(%rbp)
    2f74:	89 75 f4             	mov    %esi,-0xc(%rbp)
    2f77:	48 89 55 e8          	mov    %rdx,-0x18(%rbp)
   TIMER_DeInit();
    2f7b:	e8 80 03 00 00       	call   3300 <TIMER_DeInit>
    DEBUGMSG(DEBUG_ZONE_DEBUG, ("DeInit Timer.\r\n"));
    2f80:	48 8d 05 88 41 00 00 	lea    0x4188(%rip),%rax        # 710f <_IO_stdin_used+0x10f>
    2f87:	48 89 c7             	mov    %rax,%rdi
    2f8a:	e8 91 f3 ff ff       	call   2320 <puts@plt>
}
    2f8f:	90                   	nop
    2f90:	c9                   	leave  
    2f91:	c3                   	ret    

0000000000002f92 <main>:
};

#ifndef REAL_CHIP
void TIMER_Channel_IRQHandler(void);
int main(int argc, const char **argv)
{
    2f92:	f3 0f 1e fa          	endbr64 
    2f96:	55                   	push   %rbp
    2f97:	48 89 e5             	mov    %rsp,%rbp
    2f9a:	48 83 ec 30          	sub    $0x30,%rsp
    2f9e:	89 7d dc             	mov    %edi,-0x24(%rbp)
    2fa1:	48 89 75 d0          	mov    %rsi,-0x30(%rbp)
    int ret = 0;
    2fa5:	c7 45 f0 00 00 00 00 	movl   $0x0,-0x10(%rbp)
    int i;
    const EMUL_MENUITEM *item;

    DEBUGMSG(DEBUG_ZONE_INFO, ("AC780x TIMER Driver Test Starting...\r\n"));
    2fac:	48 8d 05 45 43 00 00 	lea    0x4345(%rip),%rax        # 72f8 <_IO_stdin_used+0x2f8>
    2fb3:	48 89 c7             	mov    %rax,%rdi
    2fb6:	e8 65 f3 ff ff       	call   2320 <puts@plt>
    DEBUGMSG(DEBUG_ZONE_INFO, ("=====================================\r\n"));
    2fbb:	48 8d 05 5e 43 00 00 	lea    0x435e(%rip),%rax        # 7320 <_IO_stdin_used+0x320>
    2fc2:	48 89 c7             	mov    %rax,%rdi
    2fc5:	e8 56 f3 ff ff       	call   2320 <puts@plt>

    // Initialize interface layer
    int result = interface_layer_init();
    2fca:	e8 09 27 00 00       	call   56d8 <interface_layer_init>
    2fcf:	89 45 f4             	mov    %eax,-0xc(%rbp)
    if (result != 0) {
    2fd2:	83 7d f4 00          	cmpl   $0x0,-0xc(%rbp)
    2fd6:	74 23                	je     2ffb <main+0x69>
        printf("Interface layer initialization failed: %d\n", result);
    2fd8:	8b 45 f4             	mov    -0xc(%rbp),%eax
    2fdb:	89 c6                	mov    %eax,%esi
    2fdd:	48 8d 05 64 43 00 00 	lea    0x4364(%rip),%rax        # 7348 <_IO_stdin_used+0x348>
    2fe4:	48 89 c7             	mov    %rax,%rdi
    2fe7:	b8 00 00 00 00       	mov    $0x0,%eax
    2fec:	e8 af f3 ff ff       	call   23a0 <printf@plt>
        return -1;
    2ff1:	b8 ff ff ff ff       	mov    $0xffffffff,%eax
    2ff6:	e9 5c 01 00 00       	jmp    3157 <main+0x1c5>
    }

    // Register device with Python model
    result = register_device(6, TIMER_CTRL_BASE, 0x1000);
    2ffb:	ba 00 10 00 00       	mov    $0x1000,%edx
    3000:	be 00 10 01 40       	mov    $0x40011000,%esi
    3005:	bf 06 00 00 00       	mov    $0x6,%edi
    300a:	e8 0c 2b 00 00       	call   5b1b <register_device>
    300f:	89 45 f4             	mov    %eax,-0xc(%rbp)
    if (result != 0) {
    3012:	83 7d f4 00          	cmpl   $0x0,-0xc(%rbp)
    3016:	74 28                	je     3040 <main+0xae>
        printf("Device registration failed: %d\n", result);
    3018:	8b 45 f4             	mov    -0xc(%rbp),%eax
    301b:	89 c6                	mov    %eax,%esi
    301d:	48 8d 05 54 43 00 00 	lea    0x4354(%rip),%rax        # 7378 <_IO_stdin_used+0x378>
    3024:	48 89 c7             	mov    %rax,%rdi
    3027:	b8 00 00 00 00       	mov    $0x0,%eax
    302c:	e8 6f f3 ff ff       	call   23a0 <printf@plt>
        interface_layer_deinit();
    3031:	e8 bb 29 00 00       	call   59f1 <interface_layer_deinit>
        return -1;
    3036:	b8 ff ff ff ff       	mov    $0xffffffff,%eax
    303b:	e9 17 01 00 00       	jmp    3157 <main+0x1c5>
    }

    register_interrupt_handler(TIMER_CHANNEL_IRQn, TIMER_Channel_IRQHandler);
    3040:	48 8d 05 3c 04 00 00 	lea    0x43c(%rip),%rax        # 3483 <TIMER_Channel_IRQHandler>
    3047:	48 89 c6             	mov    %rax,%rsi
    304a:	bf 12 00 00 00       	mov    $0x12,%edi
    304f:	e8 81 31 00 00       	call   61d5 <register_interrupt_handler>

    for (i = 0; g_timTestMenu[i].name != 0; i++)
    3054:	c7 45 ec 00 00 00 00 	movl   $0x0,-0x14(%rbp)
    305b:	e9 95 00 00 00       	jmp    30f5 <main+0x163>
    {
        item = &g_timTestMenu[i];
    3060:	8b 45 ec             	mov    -0x14(%rbp),%eax
    3063:	48 63 d0             	movslq %eax,%rdx
    3066:	48 89 d0             	mov    %rdx,%rax
    3069:	48 c1 e0 02          	shl    $0x2,%rax
    306d:	48 01 d0             	add    %rdx,%rax
    3070:	48 c1 e0 03          	shl    $0x3,%rax
    3074:	48 8d 15 05 7b 00 00 	lea    0x7b05(%rip),%rdx        # ab80 <g_timTestMenu>
    307b:	48 01 d0             	add    %rdx,%rax
    307e:	48 89 45 f8          	mov    %rax,-0x8(%rbp)
        if (strcmp(argv[1], item->name) == 0)
    3082:	48 8b 45 f8          	mov    -0x8(%rbp),%rax
    3086:	48 8b 10             	mov    (%rax),%rdx
    3089:	48 8b 45 d0          	mov    -0x30(%rbp),%rax
    308d:	48 83 c0 08          	add    $0x8,%rax
    3091:	48 8b 00             	mov    (%rax),%rax
    3094:	48 89 d6             	mov    %rdx,%rsi
    3097:	48 89 c7             	mov    %rax,%rdi
    309a:	e8 51 f3 ff ff       	call   23f0 <strcmp@plt>
    309f:	85 c0                	test   %eax,%eax
    30a1:	75 4e                	jne    30f1 <main+0x15f>
        {
            printf("Timer test:%s start with param:%s.\n", item->name, argv[2]);
    30a3:	48 8b 45 d0          	mov    -0x30(%rbp),%rax
    30a7:	48 83 c0 10          	add    $0x10,%rax
    30ab:	48 8b 10             	mov    (%rax),%rdx
    30ae:	48 8b 45 f8          	mov    -0x8(%rbp),%rax
    30b2:	48 8b 00             	mov    (%rax),%rax
    30b5:	48 89 c6             	mov    %rax,%rsi
    30b8:	48 8d 05 d9 42 00 00 	lea    0x42d9(%rip),%rax        # 7398 <_IO_stdin_used+0x398>
    30bf:	48 89 c7             	mov    %rax,%rdi
    30c2:	b8 00 00 00 00       	mov    $0x0,%eax
    30c7:	e8 d4 f2 ff ff       	call   23a0 <printf@plt>
            item->handler(item->param, argc - 2, &argv[2]);
    30cc:	48 8b 45 f8          	mov    -0x8(%rbp),%rax
    30d0:	48 8b 48 18          	mov    0x18(%rax),%rcx
    30d4:	48 8b 45 d0          	mov    -0x30(%rbp),%rax
    30d8:	48 8d 50 10          	lea    0x10(%rax),%rdx
    30dc:	8b 45 dc             	mov    -0x24(%rbp),%eax
    30df:	8d 70 fe             	lea    -0x2(%rax),%esi
    30e2:	48 8b 45 f8          	mov    -0x8(%rbp),%rax
    30e6:	48 8b 40 20          	mov    0x20(%rax),%rax
    30ea:	48 89 c7             	mov    %rax,%rdi
    30ed:	ff d1                	call   *%rcx
            goto fin;
    30ef:	eb 30                	jmp    3121 <main+0x18f>
    for (i = 0; g_timTestMenu[i].name != 0; i++)
    30f1:	83 45 ec 01          	addl   $0x1,-0x14(%rbp)
    30f5:	8b 45 ec             	mov    -0x14(%rbp),%eax
    30f8:	48 63 d0             	movslq %eax,%rdx
    30fb:	48 89 d0             	mov    %rdx,%rax
    30fe:	48 c1 e0 02          	shl    $0x2,%rax
    3102:	48 01 d0             	add    %rdx,%rax
    3105:	48 c1 e0 03          	shl    $0x3,%rax
    3109:	48 89 c2             	mov    %rax,%rdx
    310c:	48 8d 05 6d 7a 00 00 	lea    0x7a6d(%rip),%rax        # ab80 <g_timTestMenu>
    3113:	48 8b 04 02          	mov    (%rdx,%rax,1),%rax
    3117:	48 85 c0             	test   %rax,%rax
    311a:	0f 85 40 ff ff ff    	jne    3060 <main+0xce>
        }
    }

fin:
    3120:	90                   	nop
    printf("finished: %s\n", argv[1]);
    3121:	48 8b 45 d0          	mov    -0x30(%rbp),%rax
    3125:	48 83 c0 08          	add    $0x8,%rax
    3129:	48 8b 00             	mov    (%rax),%rax
    312c:	48 89 c6             	mov    %rax,%rsi
    312f:	48 8d 05 86 42 00 00 	lea    0x4286(%rip),%rax        # 73bc <_IO_stdin_used+0x3bc>
    3136:	48 89 c7             	mov    %rax,%rdi
    3139:	b8 00 00 00 00       	mov    $0x0,%eax
    313e:	e8 5d f2 ff ff       	call   23a0 <printf@plt>
    interface_layer_deinit();
    3143:	e8 a9 28 00 00       	call   59f1 <interface_layer_deinit>
    unregister_device(6);
    3148:	bf 06 00 00 00       	mov    $0x6,%edi
    314d:	e8 4e 2b 00 00       	call   5ca0 <unregister_device>
    return 0;
    3152:	b8 00 00 00 00       	mov    $0x0,%eax
}
    3157:	c9                   	leave  
    3158:	c3                   	ret    

0000000000003159 <TIMER_Enable>:
{
    3159:	55                   	push   %rbp
    315a:	48 89 e5             	mov    %rsp,%rbp
    315d:	89 7d fc             	mov    %edi,-0x4(%rbp)
    MODIFY_REG32(TIMER_CTRL->MCR, TIMER_CTRL_MCR_MDIS_Msk, TIMER_CTRL_MCR_MDIS_Pos, ~state);
    3160:	b8 00 10 01 40       	mov    $0x40011000,%eax
    3165:	8b 00                	mov    (%rax),%eax
    3167:	83 e0 fd             	and    $0xfffffffd,%eax
    316a:	89 c1                	mov    %eax,%ecx
    316c:	8b 45 fc             	mov    -0x4(%rbp),%eax
    316f:	f7 d0                	not    %eax
    3171:	01 c0                	add    %eax,%eax
    3173:	ba 00 10 01 40       	mov    $0x40011000,%edx
    3178:	09 c8                	or     %ecx,%eax
    317a:	89 02                	mov    %eax,(%rdx)
}
    317c:	90                   	nop
    317d:	5d                   	pop    %rbp
    317e:	c3                   	ret    

000000000000317f <TIMER_SetChannel>:
{
    317f:	55                   	push   %rbp
    3180:	48 89 e5             	mov    %rsp,%rbp
    3183:	48 89 7d f8          	mov    %rdi,-0x8(%rbp)
    3187:	89 75 f4             	mov    %esi,-0xc(%rbp)
    MODIFY_REG32(TIMERCHx->INIT, TIMER_CHANNEL_INIT_TEN_Msk, TIMER_CHANNEL_INIT_TEN_Pos, state);
    318a:	48 8b 45 f8          	mov    -0x8(%rbp),%rax
    318e:	8b 40 08             	mov    0x8(%rax),%eax
    3191:	83 e0 fe             	and    $0xfffffffe,%eax
    3194:	0b 45 f4             	or     -0xc(%rbp),%eax
    3197:	89 c2                	mov    %eax,%edx
    3199:	48 8b 45 f8          	mov    -0x8(%rbp),%rax
    319d:	89 50 08             	mov    %edx,0x8(%rax)
}
    31a0:	90                   	nop
    31a1:	5d                   	pop    %rbp
    31a2:	c3                   	ret    

00000000000031a3 <TIMER_SetInterrupt>:
                - TIMER_CHANNEL2
                - TIMER_CHANNEL3
* @return none
*/
__STATIC_INLINE void TIMER_SetInterrupt(TIMER_CHANNEL_Type *TIMERCHx, ACTION_Type state)
{
    31a3:	55                   	push   %rbp
    31a4:	48 89 e5             	mov    %rsp,%rbp
    31a7:	48 89 7d f8          	mov    %rdi,-0x8(%rbp)
    31ab:	89 75 f4             	mov    %esi,-0xc(%rbp)
    MODIFY_REG32(TIMERCHx->INIT, TIMER_CHANNEL_INIT_TIE_Msk, TIMER_CHANNEL_INIT_TIE_Pos, state);
    31ae:	48 8b 45 f8          	mov    -0x8(%rbp),%rax
    31b2:	8b 40 08             	mov    0x8(%rax),%eax
    31b5:	83 e0 fd             	and    $0xfffffffd,%eax
    31b8:	89 c2                	mov    %eax,%edx
    31ba:	8b 45 f4             	mov    -0xc(%rbp),%eax
    31bd:	01 c0                	add    %eax,%eax
    31bf:	09 c2                	or     %eax,%edx
    31c1:	48 8b 45 f8          	mov    -0x8(%rbp),%rax
    31c5:	89 50 08             	mov    %edx,0x8(%rax)
}
    31c8:	90                   	nop
    31c9:	5d                   	pop    %rbp
    31ca:	c3                   	ret    

00000000000031cb <TIMER_SetChainMode>:
                - TIMER_CHANNEL2
                - TIMER_CHANNEL3
* @return none
*/
__STATIC_INLINE void TIMER_SetChainMode(TIMER_CHANNEL_Type *TIMERCHx, ACTION_Type state)
{
    31cb:	55                   	push   %rbp
    31cc:	48 89 e5             	mov    %rsp,%rbp
    31cf:	48 89 7d f8          	mov    %rdi,-0x8(%rbp)
    31d3:	89 75 f4             	mov    %esi,-0xc(%rbp)
    MODIFY_REG32(TIMERCHx->INIT, TIMER_CHANNEL_INIT_CHN_Msk, TIMER_CHANNEL_INIT_CHN_Pos, state);
    31d6:	48 8b 45 f8          	mov    -0x8(%rbp),%rax
    31da:	8b 40 08             	mov    0x8(%rax),%eax
    31dd:	83 e0 fb             	and    $0xfffffffb,%eax
    31e0:	89 c2                	mov    %eax,%edx
    31e2:	8b 45 f4             	mov    -0xc(%rbp),%eax
    31e5:	c1 e0 02             	shl    $0x2,%eax
    31e8:	09 c2                	or     %eax,%edx
    31ea:	48 8b 45 f8          	mov    -0x8(%rbp),%rax
    31ee:	89 50 08             	mov    %edx,0x8(%rax)
}
    31f1:	90                   	nop
    31f2:	5d                   	pop    %rbp
    31f3:	c3                   	ret    

00000000000031f4 <TIMER_Init>:
                - TIMER_CHANNEL3
* @param[in] config: pointer to configuration structure
* @return none
*/
void TIMER_Init(TIMER_CHANNEL_Type *TIMERCHx, const TIMER_ConfigType *config)
{
    31f4:	f3 0f 1e fa          	endbr64 
    31f8:	55                   	push   %rbp
    31f9:	48 89 e5             	mov    %rsp,%rbp
    31fc:	48 83 ec 20          	sub    $0x20,%rsp
    3200:	48 89 7d e8          	mov    %rdi,-0x18(%rbp)
    3204:	48 89 75 e0          	mov    %rsi,-0x20(%rbp)
    uint8_t instance;

    instance = TIMER_CHANNEL_INDEX(TIMERCHx);
    3208:	48 8b 45 e8          	mov    -0x18(%rbp),%rax
    320c:	89 c0                	mov    %eax,%eax
    320e:	48 2d 00 11 01 40    	sub    $0x40011100,%rax
    3214:	48 c1 e8 04          	shr    $0x4,%rax
    3218:	88 45 ff             	mov    %al,-0x1(%rbp)
    DEVICE_ASSERT(TIMER_CHANNEL_MAX > instance);
    321b:	80 7d ff 03          	cmpb   $0x3,-0x1(%rbp)
    321f:	76 2f                	jbe    3250 <TIMER_Init+0x5c>
    3221:	b9 4c 00 00 00       	mov    $0x4c,%ecx
    3226:	48 8d 05 d3 41 00 00 	lea    0x41d3(%rip),%rax        # 7400 <s_timerChnBase+0x20>
    322d:	48 89 c2             	mov    %rax,%rdx
    3230:	48 8d 05 df 41 00 00 	lea    0x41df(%rip),%rax        # 7416 <s_timerChnBase+0x36>
    3237:	48 89 c6             	mov    %rax,%rsi
    323a:	48 8d 05 f7 41 00 00 	lea    0x41f7(%rip),%rax        # 7438 <s_timerChnBase+0x58>
    3241:	48 89 c7             	mov    %rax,%rdi
    3244:	b8 00 00 00 00       	mov    $0x0,%eax
    3249:	e8 52 f1 ff ff       	call   23a0 <printf@plt>
    324e:	eb fe                	jmp    324e <TIMER_Init+0x5a>
    DEVICE_ASSERT(NULL != config);
    3250:	48 83 7d e0 00       	cmpq   $0x0,-0x20(%rbp)
    3255:	75 2f                	jne    3286 <TIMER_Init+0x92>
    3257:	b9 4d 00 00 00       	mov    $0x4d,%ecx
    325c:	48 8d 05 9d 41 00 00 	lea    0x419d(%rip),%rax        # 7400 <s_timerChnBase+0x20>
    3263:	48 89 c2             	mov    %rax,%rdx
    3266:	48 8d 05 f3 41 00 00 	lea    0x41f3(%rip),%rax        # 7460 <s_timerChnBase+0x80>
    326d:	48 89 c6             	mov    %rax,%rsi
    3270:	48 8d 05 c1 41 00 00 	lea    0x41c1(%rip),%rax        # 7438 <s_timerChnBase+0x58>
    3277:	48 89 c7             	mov    %rax,%rdi
    327a:	b8 00 00 00 00       	mov    $0x0,%eax
    327f:	e8 1c f1 ff ff       	call   23a0 <printf@plt>
    3284:	eb fe                	jmp    3284 <TIMER_Init+0x90>
    /* Enbale timer clock */
    CKGEN_Enable(CLK_TIMER, ENABLE);
    CKGEN_SoftReset(SRST_TIMER, ENABLE);
#endif
    /* Enbale timer module */
    TIMER_Enable(ENABLE);
    3286:	bf 01 00 00 00       	mov    $0x1,%edi
    328b:	e8 c9 fe ff ff       	call   3159 <TIMER_Enable>

    /* Set timer channel period value */
    TIMER_SetPeriodLoadValue(TIMERCHx, config->periodValue);
    3290:	48 8b 45 e0          	mov    -0x20(%rbp),%rax
    3294:	8b 10                	mov    (%rax),%edx
    3296:	48 8b 45 e8          	mov    -0x18(%rbp),%rax
    329a:	89 10                	mov    %edx,(%rax)

    /* Set timer channel link mode */
    TIMER_SetChainMode(TIMERCHx, config->chainModeEn);
    329c:	48 8b 45 e0          	mov    -0x20(%rbp),%rax
    32a0:	8b 50 04             	mov    0x4(%rax),%edx
    32a3:	48 8b 45 e8          	mov    -0x18(%rbp),%rax
    32a7:	89 d6                	mov    %edx,%esi
    32a9:	48 89 c7             	mov    %rax,%rdi
    32ac:	e8 1a ff ff ff       	call   31cb <TIMER_SetChainMode>

    /* Register callback function */
    s_timerCallback[instance] = config->callBack;
    32b1:	0f b6 55 ff          	movzbl -0x1(%rbp),%edx
    32b5:	48 8b 45 e0          	mov    -0x20(%rbp),%rax
    32b9:	48 8b 40 10          	mov    0x10(%rax),%rax
    32bd:	48 63 d2             	movslq %edx,%rdx
    32c0:	48 8d 0c d5 00 00 00 	lea    0x0(,%rdx,8),%rcx
    32c7:	00 
    32c8:	48 8d 15 f1 7d 00 00 	lea    0x7df1(%rip),%rdx        # b0c0 <s_timerCallback>
    32cf:	48 89 04 11          	mov    %rax,(%rcx,%rdx,1)

    /* Set timer channel interrupt */
    TIMER_SetInterrupt(TIMERCHx, config->interruptEn);
    32d3:	48 8b 45 e0          	mov    -0x20(%rbp),%rax
    32d7:	8b 50 08             	mov    0x8(%rax),%edx
    32da:	48 8b 45 e8          	mov    -0x18(%rbp),%rax
    32de:	89 d6                	mov    %edx,%esi
    32e0:	48 89 c7             	mov    %rax,%rdi
    32e3:	e8 bb fe ff ff       	call   31a3 <TIMER_SetInterrupt>
    {
        NVIC_DisableIRQ(TIMER_CHANNEL_IRQn);
    }

    /* Enable timer channel */
    TIMER_SetChannel(TIMERCHx, config->timerEn);
    32e8:	48 8b 45 e0          	mov    -0x20(%rbp),%rax
    32ec:	8b 50 18             	mov    0x18(%rax),%edx
    32ef:	48 8b 45 e8          	mov    -0x18(%rbp),%rax
    32f3:	89 d6                	mov    %edx,%esi
    32f5:	48 89 c7             	mov    %rax,%rdi
    32f8:	e8 82 fe ff ff       	call   317f <TIMER_SetChannel>
}
    32fd:	90                   	nop
    32fe:	c9                   	leave  
    32ff:	c3                   	ret    

0000000000003300 <TIMER_DeInit>:
 *
 * @param[in] none
 * @return none
 */
void TIMER_DeInit(void)
{
    3300:	f3 0f 1e fa          	endbr64 
    3304:	55                   	push   %rbp
    3305:	48 89 e5             	mov    %rsp,%rbp
    uint8_t i;

    for (i = 0U; i < TIMER_CHANNEL_MAX; i++)
    3308:	c6 45 ff 00          	movb   $0x0,-0x1(%rbp)
    330c:	eb 27                	jmp    3335 <TIMER_DeInit+0x35>
    {
        s_timerCallback[i] = NULL;
    330e:	0f b6 45 ff          	movzbl -0x1(%rbp),%eax
    3312:	48 98                	cltq   
    3314:	48 8d 14 c5 00 00 00 	lea    0x0(,%rax,8),%rdx
    331b:	00 
    331c:	48 8d 05 9d 7d 00 00 	lea    0x7d9d(%rip),%rax        # b0c0 <s_timerCallback>
    3323:	48 c7 04 02 00 00 00 	movq   $0x0,(%rdx,%rax,1)
    332a:	00 
    for (i = 0U; i < TIMER_CHANNEL_MAX; i++)
    332b:	0f b6 45 ff          	movzbl -0x1(%rbp),%eax
    332f:	83 c0 01             	add    $0x1,%eax
    3332:	88 45 ff             	mov    %al,-0x1(%rbp)
    3335:	80 7d ff 03          	cmpb   $0x3,-0x1(%rbp)
    3339:	76 d3                	jbe    330e <TIMER_DeInit+0xe>

#ifdef REAL_CHIP
    CKGEN_SoftReset(SRST_TIMER, DISABLE);
    CKGEN_Enable(CLK_TIMER, DISABLE);
#endif
}
    333b:	90                   	nop
    333c:	90                   	nop
    333d:	5d                   	pop    %rbp
    333e:	c3                   	ret    

000000000000333f <TIMER_DeInitChannel>:
                - TIMER_CHANNEL2
                - TIMER_CHANNEL3
 * @return none
 */
void TIMER_DeInitChannel(TIMER_CHANNEL_Type *TIMERCHx)
{
    333f:	f3 0f 1e fa          	endbr64 
    3343:	55                   	push   %rbp
    3344:	48 89 e5             	mov    %rsp,%rbp
    3347:	48 83 ec 20          	sub    $0x20,%rsp
    334b:	48 89 7d e8          	mov    %rdi,-0x18(%rbp)
    uint8_t instance;

    instance = TIMER_CHANNEL_INDEX(TIMERCHx);
    334f:	48 8b 45 e8          	mov    -0x18(%rbp),%rax
    3353:	89 c0                	mov    %eax,%eax
    3355:	48 2d 00 11 01 40    	sub    $0x40011100,%rax
    335b:	48 c1 e8 04          	shr    $0x4,%rax
    335f:	88 45 ff             	mov    %al,-0x1(%rbp)

    DEVICE_ASSERT(TIMER_CHANNEL_MAX > instance);
    3362:	80 7d ff 03          	cmpb   $0x3,-0x1(%rbp)
    3366:	76 2f                	jbe    3397 <TIMER_DeInitChannel+0x58>
    3368:	b9 9a 00 00 00       	mov    $0x9a,%ecx
    336d:	48 8d 05 8c 40 00 00 	lea    0x408c(%rip),%rax        # 7400 <s_timerChnBase+0x20>
    3374:	48 89 c2             	mov    %rax,%rdx
    3377:	48 8d 05 98 40 00 00 	lea    0x4098(%rip),%rax        # 7416 <s_timerChnBase+0x36>
    337e:	48 89 c6             	mov    %rax,%rsi
    3381:	48 8d 05 b0 40 00 00 	lea    0x40b0(%rip),%rax        # 7438 <s_timerChnBase+0x58>
    3388:	48 89 c7             	mov    %rax,%rdi
    338b:	b8 00 00 00 00       	mov    $0x0,%eax
    3390:	e8 0b f0 ff ff       	call   23a0 <printf@plt>
    3395:	eb fe                	jmp    3395 <TIMER_DeInitChannel+0x56>
    s_timerCallback[instance] = NULL;
    3397:	0f b6 45 ff          	movzbl -0x1(%rbp),%eax
    339b:	48 98                	cltq   
    339d:	48 8d 14 c5 00 00 00 	lea    0x0(,%rax,8),%rdx
    33a4:	00 
    33a5:	48 8d 05 14 7d 00 00 	lea    0x7d14(%rip),%rax        # b0c0 <s_timerCallback>
    33ac:	48 c7 04 02 00 00 00 	movq   $0x0,(%rdx,%rax,1)
    33b3:	00 
    NVIC_DisableIRQ(TIMER_CHANNEL_IRQn);
    NVIC_ClearPendingIRQ(TIMER_CHANNEL_IRQn);
    TIMER_SetChannel(TIMERCHx, DISABLE);
    33b4:	48 8b 45 e8          	mov    -0x18(%rbp),%rax
    33b8:	be 00 00 00 00       	mov    $0x0,%esi
    33bd:	48 89 c7             	mov    %rax,%rdi
    33c0:	e8 ba fd ff ff       	call   317f <TIMER_SetChannel>
    TIMER_SetInterrupt(TIMERCHx, DISABLE);
    33c5:	48 8b 45 e8          	mov    -0x18(%rbp),%rax
    33c9:	be 00 00 00 00       	mov    $0x0,%esi
    33ce:	48 89 c7             	mov    %rax,%rdi
    33d1:	e8 cd fd ff ff       	call   31a3 <TIMER_SetInterrupt>
    TIMER_SetPeriodLoadValue(TIMERCHx, 0);
    33d6:	48 8b 45 e8          	mov    -0x18(%rbp),%rax
    33da:	c7 00 00 00 00 00    	movl   $0x0,(%rax)
    TIMER_SetChainMode(TIMERCHx, DISABLE);
    33e0:	48 8b 45 e8          	mov    -0x18(%rbp),%rax
    33e4:	be 00 00 00 00       	mov    $0x0,%esi
    33e9:	48 89 c7             	mov    %rax,%rdi
    33ec:	e8 da fd ff ff       	call   31cb <TIMER_SetChainMode>
    TIMER_ClearTimeoutFlag(TIMERCHx);
    33f1:	48 8b 45 e8          	mov    -0x18(%rbp),%rax
    33f5:	8b 40 0c             	mov    0xc(%rax),%eax
    33f8:	83 c8 01             	or     $0x1,%eax
    33fb:	89 c2                	mov    %eax,%edx
    33fd:	48 8b 45 e8          	mov    -0x18(%rbp),%rax
    3401:	89 50 0c             	mov    %edx,0xc(%rax)
}
    3404:	90                   	nop
    3405:	c9                   	leave  
    3406:	c3                   	ret    

0000000000003407 <TIMER_SetCallback>:
                - TIMER_CHANNEL2
                - TIMER_CHANNEL3
 * @return none
 */
void TIMER_SetCallback(TIMER_CHANNEL_Type *TIMERCHx, const DeviceCallback_Type func)
{
    3407:	f3 0f 1e fa          	endbr64 
    340b:	55                   	push   %rbp
    340c:	48 89 e5             	mov    %rsp,%rbp
    340f:	48 83 ec 20          	sub    $0x20,%rsp
    3413:	48 89 7d e8          	mov    %rdi,-0x18(%rbp)
    3417:	48 89 75 e0          	mov    %rsi,-0x20(%rbp)
    uint8_t instance;

    instance = TIMER_CHANNEL_INDEX(TIMERCHx);
    341b:	48 8b 45 e8          	mov    -0x18(%rbp),%rax
    341f:	89 c0                	mov    %eax,%eax
    3421:	48 2d 00 11 01 40    	sub    $0x40011100,%rax
    3427:	48 c1 e8 04          	shr    $0x4,%rax
    342b:	88 45 ff             	mov    %al,-0x1(%rbp)

    DEVICE_ASSERT(TIMER_CHANNEL_MAX > instance);
    342e:	80 7d ff 03          	cmpb   $0x3,-0x1(%rbp)
    3432:	76 2f                	jbe    3463 <TIMER_SetCallback+0x5c>
    3434:	b9 b5 00 00 00       	mov    $0xb5,%ecx
    3439:	48 8d 05 c0 3f 00 00 	lea    0x3fc0(%rip),%rax        # 7400 <s_timerChnBase+0x20>
    3440:	48 89 c2             	mov    %rax,%rdx
    3443:	48 8d 05 cc 3f 00 00 	lea    0x3fcc(%rip),%rax        # 7416 <s_timerChnBase+0x36>
    344a:	48 89 c6             	mov    %rax,%rsi
    344d:	48 8d 05 e4 3f 00 00 	lea    0x3fe4(%rip),%rax        # 7438 <s_timerChnBase+0x58>
    3454:	48 89 c7             	mov    %rax,%rdi
    3457:	b8 00 00 00 00       	mov    $0x0,%eax
    345c:	e8 3f ef ff ff       	call   23a0 <printf@plt>
    3461:	eb fe                	jmp    3461 <TIMER_SetCallback+0x5a>
    s_timerCallback[instance] = func;
    3463:	0f b6 45 ff          	movzbl -0x1(%rbp),%eax
    3467:	48 98                	cltq   
    3469:	48 8d 0c c5 00 00 00 	lea    0x0(,%rax,8),%rcx
    3470:	00 
    3471:	48 8d 15 48 7c 00 00 	lea    0x7c48(%rip),%rdx        # b0c0 <s_timerCallback>
    3478:	48 8b 45 e0          	mov    -0x20(%rbp),%rax
    347c:	48 89 04 11          	mov    %rax,(%rcx,%rdx,1)
}
    3480:	90                   	nop
    3481:	c9                   	leave  
    3482:	c3                   	ret    

0000000000003483 <TIMER_Channel_IRQHandler>:
 *
 * @param[in] none
 * @return none
 */
void TIMER_Channel_IRQHandler(void)
{
    3483:	f3 0f 1e fa          	endbr64 
    3487:	55                   	push   %rbp
    3488:	48 89 e5             	mov    %rsp,%rbp
    348b:	48 83 ec 20          	sub    $0x20,%rsp
    uint8_t channel;
    uint32_t flag, timTIE;
    TIMER_CHANNEL_Type *TIMERCHx;

    for (channel = 0U; channel < TIMER_CHANNEL_MAX; channel++)
    348f:	c6 45 ef 00          	movb   $0x0,-0x11(%rbp)
    3493:	e9 ab 00 00 00       	jmp    3543 <TIMER_Channel_IRQHandler+0xc0>
    {
        TIMERCHx = s_timerChnBase[channel];
    3498:	0f b6 45 ef          	movzbl -0x11(%rbp),%eax
    349c:	48 98                	cltq   
    349e:	48 8d 14 c5 00 00 00 	lea    0x0(,%rax,8),%rdx
    34a5:	00 
    34a6:	48 8d 05 33 3f 00 00 	lea    0x3f33(%rip),%rax        # 73e0 <s_timerChnBase>
    34ad:	48 8b 04 02          	mov    (%rdx,%rax,1),%rax
    34b1:	48 89 45 f8          	mov    %rax,-0x8(%rbp)
        /* store device status */
        flag = TIMER_GetTimeoutFlag(TIMERCHx);
    34b5:	48 8b 45 f8          	mov    -0x8(%rbp),%rax
    34b9:	8b 40 0c             	mov    0xc(%rax),%eax
    34bc:	83 e0 01             	and    $0x1,%eax
    34bf:	89 45 f0             	mov    %eax,-0x10(%rbp)
        timTIE = TIMER_GetTimeInterruptEn(TIMERCHx);
    34c2:	48 8b 45 f8          	mov    -0x8(%rbp),%rax
    34c6:	8b 40 08             	mov    0x8(%rax),%eax
    34c9:	83 e0 02             	and    $0x2,%eax
    34cc:	89 45 f4             	mov    %eax,-0xc(%rbp)
        if ((0U != flag) && (0U != timTIE))
    34cf:	83 7d f0 00          	cmpl   $0x0,-0x10(%rbp)
    34d3:	74 64                	je     3539 <TIMER_Channel_IRQHandler+0xb6>
    34d5:	83 7d f4 00          	cmpl   $0x0,-0xc(%rbp)
    34d9:	74 5e                	je     3539 <TIMER_Channel_IRQHandler+0xb6>
        {
            /* clear device status */
            TIMER_ClearTimeoutFlag(TIMERCHx);
    34db:	48 8b 45 f8          	mov    -0x8(%rbp),%rax
    34df:	8b 40 0c             	mov    0xc(%rax),%eax
    34e2:	83 c8 01             	or     $0x1,%eax
    34e5:	89 c2                	mov    %eax,%edx
    34e7:	48 8b 45 f8          	mov    -0x8(%rbp),%rax
    34eb:	89 50 0c             	mov    %edx,0xc(%rax)
            if (NULL != s_timerCallback[channel])
    34ee:	0f b6 45 ef          	movzbl -0x11(%rbp),%eax
    34f2:	48 98                	cltq   
    34f4:	48 8d 14 c5 00 00 00 	lea    0x0(,%rax,8),%rdx
    34fb:	00 
    34fc:	48 8d 05 bd 7b 00 00 	lea    0x7bbd(%rip),%rax        # b0c0 <s_timerCallback>
    3503:	48 8b 04 02          	mov    (%rdx,%rax,1),%rax
    3507:	48 85 c0             	test   %rax,%rax
    350a:	74 2d                	je     3539 <TIMER_Channel_IRQHandler+0xb6>
            {
                /* callback */
                s_timerCallback[channel](TIMERCHx, flag, 0U);
    350c:	0f b6 45 ef          	movzbl -0x11(%rbp),%eax
    3510:	48 98                	cltq   
    3512:	48 8d 14 c5 00 00 00 	lea    0x0(,%rax,8),%rdx
    3519:	00 
    351a:	48 8d 05 9f 7b 00 00 	lea    0x7b9f(%rip),%rax        # b0c0 <s_timerCallback>
    3521:	4c 8b 04 02          	mov    (%rdx,%rax,1),%r8
    3525:	8b 4d f0             	mov    -0x10(%rbp),%ecx
    3528:	48 8b 45 f8          	mov    -0x8(%rbp),%rax
    352c:	ba 00 00 00 00       	mov    $0x0,%edx
    3531:	89 ce                	mov    %ecx,%esi
    3533:	48 89 c7             	mov    %rax,%rdi
    3536:	41 ff d0             	call   *%r8
    for (channel = 0U; channel < TIMER_CHANNEL_MAX; channel++)
    3539:	0f b6 45 ef          	movzbl -0x11(%rbp),%eax
    353d:	83 c0 01             	add    $0x1,%eax
    3540:	88 45 ef             	mov    %al,-0x11(%rbp)
    3543:	80 7d ef 03          	cmpb   $0x3,-0x11(%rbp)
    3547:	0f 86 4b ff ff ff    	jbe    3498 <TIMER_Channel_IRQHandler+0x15>
            }
        }
    }
}
    354d:	90                   	nop
    354e:	90                   	nop
    354f:	c9                   	leave  
    3550:	c3                   	ret    

0000000000003551 <get_instruction_length>:
static volatile uint32_t pending_device_interrupt = 0;
static volatile uint32_t pending_interrupt_id = 0;
static volatile sig_atomic_t interrupt_pending = 0;

/* Function to calculate x86-64 instruction length */
static int get_instruction_length(uint8_t *instruction) {
    3551:	f3 0f 1e fa          	endbr64 
    3555:	55                   	push   %rbp
    3556:	48 89 e5             	mov    %rsp,%rbp
    3559:	48 89 7d d8          	mov    %rdi,-0x28(%rbp)
    uint8_t *inst_ptr = instruction;
    355d:	48 8b 45 d8          	mov    -0x28(%rbp),%rax
    3561:	48 89 45 f0          	mov    %rax,-0x10(%rbp)
    int length = 0;
    3565:	c7 45 e4 00 00 00 00 	movl   $0x0,-0x1c(%rbp)

    /* Legacy prefixes (can have multiple) */
    while (*inst_ptr == 0xF0 || *inst_ptr == 0xF2 || *inst_ptr == 0xF3 ||  /* LOCK, REPNE, REP */
    356c:	eb 09                	jmp    3577 <get_instruction_length+0x26>
           *inst_ptr == 0x2E || *inst_ptr == 0x36 || *inst_ptr == 0x3E ||  /* Segment overrides */
           *inst_ptr == 0x26 || *inst_ptr == 0x64 || *inst_ptr == 0x65 ||
           *inst_ptr == 0x66 || *inst_ptr == 0x67) {                       /* Operand/Address size */
        inst_ptr++;
    356e:	48 83 45 f0 01       	addq   $0x1,-0x10(%rbp)
        length++;
    3573:	83 45 e4 01          	addl   $0x1,-0x1c(%rbp)
    while (*inst_ptr == 0xF0 || *inst_ptr == 0xF2 || *inst_ptr == 0xF3 ||  /* LOCK, REPNE, REP */
    3577:	48 8b 45 f0          	mov    -0x10(%rbp),%rax
    357b:	0f b6 00             	movzbl (%rax),%eax
           *inst_ptr == 0x66 || *inst_ptr == 0x67) {                       /* Operand/Address size */
    357e:	3c f0                	cmp    $0xf0,%al
    3580:	74 ec                	je     356e <get_instruction_length+0x1d>
    while (*inst_ptr == 0xF0 || *inst_ptr == 0xF2 || *inst_ptr == 0xF3 ||  /* LOCK, REPNE, REP */
    3582:	48 8b 45 f0          	mov    -0x10(%rbp),%rax
    3586:	0f b6 00             	movzbl (%rax),%eax
    3589:	3c f2                	cmp    $0xf2,%al
    358b:	74 e1                	je     356e <get_instruction_length+0x1d>
    358d:	48 8b 45 f0          	mov    -0x10(%rbp),%rax
    3591:	0f b6 00             	movzbl (%rax),%eax
    3594:	3c f3                	cmp    $0xf3,%al
    3596:	74 d6                	je     356e <get_instruction_length+0x1d>
           *inst_ptr == 0x2E || *inst_ptr == 0x36 || *inst_ptr == 0x3E ||  /* Segment overrides */
    3598:	48 8b 45 f0          	mov    -0x10(%rbp),%rax
    359c:	0f b6 00             	movzbl (%rax),%eax
    while (*inst_ptr == 0xF0 || *inst_ptr == 0xF2 || *inst_ptr == 0xF3 ||  /* LOCK, REPNE, REP */
    359f:	3c 2e                	cmp    $0x2e,%al
    35a1:	74 cb                	je     356e <get_instruction_length+0x1d>
           *inst_ptr == 0x2E || *inst_ptr == 0x36 || *inst_ptr == 0x3E ||  /* Segment overrides */
    35a3:	48 8b 45 f0          	mov    -0x10(%rbp),%rax
    35a7:	0f b6 00             	movzbl (%rax),%eax
    35aa:	3c 36                	cmp    $0x36,%al
    35ac:	74 c0                	je     356e <get_instruction_length+0x1d>
    35ae:	48 8b 45 f0          	mov    -0x10(%rbp),%rax
    35b2:	0f b6 00             	movzbl (%rax),%eax
    35b5:	3c 3e                	cmp    $0x3e,%al
    35b7:	74 b5                	je     356e <get_instruction_length+0x1d>
           *inst_ptr == 0x26 || *inst_ptr == 0x64 || *inst_ptr == 0x65 ||
    35b9:	48 8b 45 f0          	mov    -0x10(%rbp),%rax
    35bd:	0f b6 00             	movzbl (%rax),%eax
           *inst_ptr == 0x2E || *inst_ptr == 0x36 || *inst_ptr == 0x3E ||  /* Segment overrides */
    35c0:	3c 26                	cmp    $0x26,%al
    35c2:	74 aa                	je     356e <get_instruction_length+0x1d>
           *inst_ptr == 0x26 || *inst_ptr == 0x64 || *inst_ptr == 0x65 ||
    35c4:	48 8b 45 f0          	mov    -0x10(%rbp),%rax
    35c8:	0f b6 00             	movzbl (%rax),%eax
    35cb:	3c 64                	cmp    $0x64,%al
    35cd:	74 9f                	je     356e <get_instruction_length+0x1d>
    35cf:	48 8b 45 f0          	mov    -0x10(%rbp),%rax
    35d3:	0f b6 00             	movzbl (%rax),%eax
    35d6:	3c 65                	cmp    $0x65,%al
    35d8:	74 94                	je     356e <get_instruction_length+0x1d>
           *inst_ptr == 0x66 || *inst_ptr == 0x67) {                       /* Operand/Address size */
    35da:	48 8b 45 f0          	mov    -0x10(%rbp),%rax
    35de:	0f b6 00             	movzbl (%rax),%eax
           *inst_ptr == 0x26 || *inst_ptr == 0x64 || *inst_ptr == 0x65 ||
    35e1:	3c 66                	cmp    $0x66,%al
    35e3:	74 89                	je     356e <get_instruction_length+0x1d>
           *inst_ptr == 0x66 || *inst_ptr == 0x67) {                       /* Operand/Address size */
    35e5:	48 8b 45 f0          	mov    -0x10(%rbp),%rax
    35e9:	0f b6 00             	movzbl (%rax),%eax
    35ec:	3c 67                	cmp    $0x67,%al
    35ee:	0f 84 7a ff ff ff    	je     356e <get_instruction_length+0x1d>
    }

    /* REX prefix (only in 64-bit mode) */
    if (*inst_ptr >= 0x40 && *inst_ptr <= 0x4F) {
    35f4:	48 8b 45 f0          	mov    -0x10(%rbp),%rax
    35f8:	0f b6 00             	movzbl (%rax),%eax
    35fb:	3c 3f                	cmp    $0x3f,%al
    35fd:	76 14                	jbe    3613 <get_instruction_length+0xc2>
    35ff:	48 8b 45 f0          	mov    -0x10(%rbp),%rax
    3603:	0f b6 00             	movzbl (%rax),%eax
    3606:	3c 4f                	cmp    $0x4f,%al
    3608:	77 09                	ja     3613 <get_instruction_length+0xc2>
        inst_ptr++;
    360a:	48 83 45 f0 01       	addq   $0x1,-0x10(%rbp)
        length++;
    360f:	83 45 e4 01          	addl   $0x1,-0x1c(%rbp)
    }

    /* Opcode (1-3 bytes) */
    uint8_t opcode = *inst_ptr++;
    3613:	48 8b 45 f0          	mov    -0x10(%rbp),%rax
    3617:	48 8d 50 01          	lea    0x1(%rax),%rdx
    361b:	48 89 55 f0          	mov    %rdx,-0x10(%rbp)
    361f:	0f b6 00             	movzbl (%rax),%eax
    3622:	88 45 e0             	mov    %al,-0x20(%rbp)
    length++;
    3625:	83 45 e4 01          	addl   $0x1,-0x1c(%rbp)

    /* Handle two-byte opcodes */
    if (opcode == 0x0F) {
    3629:	80 7d e0 0f          	cmpb   $0xf,-0x20(%rbp)
    362d:	75 2b                	jne    365a <get_instruction_length+0x109>
        opcode = *inst_ptr++;
    362f:	48 8b 45 f0          	mov    -0x10(%rbp),%rax
    3633:	48 8d 50 01          	lea    0x1(%rax),%rdx
    3637:	48 89 55 f0          	mov    %rdx,-0x10(%rbp)
    363b:	0f b6 00             	movzbl (%rax),%eax
    363e:	88 45 e0             	mov    %al,-0x20(%rbp)
        length++;
    3641:	83 45 e4 01          	addl   $0x1,-0x1c(%rbp)

        /* Handle three-byte opcodes */
        if (opcode == 0x38 || opcode == 0x3A) {
    3645:	80 7d e0 38          	cmpb   $0x38,-0x20(%rbp)
    3649:	74 06                	je     3651 <get_instruction_length+0x100>
    364b:	80 7d e0 3a          	cmpb   $0x3a,-0x20(%rbp)
    364f:	75 09                	jne    365a <get_instruction_length+0x109>
            inst_ptr++;
    3651:	48 83 45 f0 01       	addq   $0x1,-0x10(%rbp)
            length++;
    3656:	83 45 e4 01          	addl   $0x1,-0x1c(%rbp)
        }
    }

    /* ModR/M byte analysis */
    uint8_t modrm = *inst_ptr;
    365a:	48 8b 45 f0          	mov    -0x10(%rbp),%rax
    365e:	0f b6 00             	movzbl (%rax),%eax
    3661:	88 45 e1             	mov    %al,-0x1f(%rbp)
    uint8_t mod = (modrm >> 6) & 0x03;
    3664:	0f b6 45 e1          	movzbl -0x1f(%rbp),%eax
    3668:	c0 e8 06             	shr    $0x6,%al
    366b:	88 45 e2             	mov    %al,-0x1e(%rbp)
    uint8_t rm = modrm & 0x07;
    366e:	0f b6 45 e1          	movzbl -0x1f(%rbp),%eax
    3672:	83 e0 07             	and    $0x7,%eax
    3675:	88 45 e3             	mov    %al,-0x1d(%rbp)

    /* Check if this instruction has ModR/M byte */
    int has_modrm = 0;
    3678:	c7 45 e8 00 00 00 00 	movl   $0x0,-0x18(%rbp)

    /* Single-byte opcodes that have ModR/M */
    if (opcode == 0x88 || opcode == 0x89 || opcode == 0x8A || opcode == 0x8B ||
    367f:	80 7d e0 88          	cmpb   $0x88,-0x20(%rbp)
    3683:	74 1e                	je     36a3 <get_instruction_length+0x152>
    3685:	80 7d e0 89          	cmpb   $0x89,-0x20(%rbp)
    3689:	74 18                	je     36a3 <get_instruction_length+0x152>
    368b:	80 7d e0 8a          	cmpb   $0x8a,-0x20(%rbp)
    368f:	74 12                	je     36a3 <get_instruction_length+0x152>
    3691:	80 7d e0 8b          	cmpb   $0x8b,-0x20(%rbp)
    3695:	74 0c                	je     36a3 <get_instruction_length+0x152>
    3697:	80 7d e0 c6          	cmpb   $0xc6,-0x20(%rbp)
    369b:	74 06                	je     36a3 <get_instruction_length+0x152>
        opcode == 0xC6 || opcode == 0xC7) {
    369d:	80 7d e0 c7          	cmpb   $0xc7,-0x20(%rbp)
    36a1:	75 09                	jne    36ac <get_instruction_length+0x15b>
        has_modrm = 1;
    36a3:	c7 45 e8 01 00 00 00 	movl   $0x1,-0x18(%rbp)
    36aa:	eb 1f                	jmp    36cb <get_instruction_length+0x17a>
    }
    /* Two-byte opcodes that have ModR/M (0x0F prefix already consumed) */
    else if (opcode == 0xB6 || opcode == 0xB7 || opcode == 0xBE || opcode == 0xBF) {
    36ac:	80 7d e0 b6          	cmpb   $0xb6,-0x20(%rbp)
    36b0:	74 12                	je     36c4 <get_instruction_length+0x173>
    36b2:	80 7d e0 b7          	cmpb   $0xb7,-0x20(%rbp)
    36b6:	74 0c                	je     36c4 <get_instruction_length+0x173>
    36b8:	80 7d e0 be          	cmpb   $0xbe,-0x20(%rbp)
    36bc:	74 06                	je     36c4 <get_instruction_length+0x173>
    36be:	80 7d e0 bf          	cmpb   $0xbf,-0x20(%rbp)
    36c2:	75 07                	jne    36cb <get_instruction_length+0x17a>
        has_modrm = 1;
    36c4:	c7 45 e8 01 00 00 00 	movl   $0x1,-0x18(%rbp)
    }

    if (has_modrm) {
    36cb:	83 7d e8 00          	cmpl   $0x0,-0x18(%rbp)
    36cf:	0f 84 9f 00 00 00    	je     3774 <get_instruction_length+0x223>
        inst_ptr++;
    36d5:	48 83 45 f0 01       	addq   $0x1,-0x10(%rbp)
        length++;
    36da:	83 45 e4 01          	addl   $0x1,-0x1c(%rbp)

        /* SIB byte (if needed) */
        if (mod != 0x03 && rm == 0x04) {
    36de:	80 7d e2 03          	cmpb   $0x3,-0x1e(%rbp)
    36e2:	74 0f                	je     36f3 <get_instruction_length+0x1a2>
    36e4:	80 7d e3 04          	cmpb   $0x4,-0x1d(%rbp)
    36e8:	75 09                	jne    36f3 <get_instruction_length+0x1a2>
            inst_ptr++;
    36ea:	48 83 45 f0 01       	addq   $0x1,-0x10(%rbp)
            length++;
    36ef:	83 45 e4 01          	addl   $0x1,-0x1c(%rbp)
        }

        /* Displacement */
        if (mod == 0x01) {
    36f3:	80 7d e2 01          	cmpb   $0x1,-0x1e(%rbp)
    36f7:	75 06                	jne    36ff <get_instruction_length+0x1ae>
            length += 1;  /* 8-bit displacement */
    36f9:	83 45 e4 01          	addl   $0x1,-0x1c(%rbp)
    36fd:	eb 16                	jmp    3715 <get_instruction_length+0x1c4>
        } else if (mod == 0x02 || (mod == 0x00 && rm == 0x05)) {
    36ff:	80 7d e2 02          	cmpb   $0x2,-0x1e(%rbp)
    3703:	74 0c                	je     3711 <get_instruction_length+0x1c0>
    3705:	80 7d e2 00          	cmpb   $0x0,-0x1e(%rbp)
    3709:	75 0a                	jne    3715 <get_instruction_length+0x1c4>
    370b:	80 7d e3 05          	cmpb   $0x5,-0x1d(%rbp)
    370f:	75 04                	jne    3715 <get_instruction_length+0x1c4>
            length += 4;  /* 32-bit displacement */
    3711:	83 45 e4 04          	addl   $0x4,-0x1c(%rbp)
        }

        /* Immediate data */
        if (opcode == 0xC6) {
    3715:	80 7d e0 c6          	cmpb   $0xc6,-0x20(%rbp)
    3719:	75 06                	jne    3721 <get_instruction_length+0x1d0>
            length += 1;  /* 8-bit immediate */
    371b:	83 45 e4 01          	addl   $0x1,-0x1c(%rbp)
    371f:	eb 53                	jmp    3774 <get_instruction_length+0x223>
        } else if (opcode == 0xC7) {
    3721:	80 7d e0 c7          	cmpb   $0xc7,-0x20(%rbp)
    3725:	75 4d                	jne    3774 <get_instruction_length+0x223>
            /* Check for 16-bit operand size prefix */
            uint8_t *check_ptr = instruction;
    3727:	48 8b 45 d8          	mov    -0x28(%rbp),%rax
    372b:	48 89 45 f8          	mov    %rax,-0x8(%rbp)
            int has_66_prefix = 0;
    372f:	c7 45 ec 00 00 00 00 	movl   $0x0,-0x14(%rbp)
            while (check_ptr < inst_ptr - 1) {
    3736:	eb 19                	jmp    3751 <get_instruction_length+0x200>
                if (*check_ptr == 0x66) {
    3738:	48 8b 45 f8          	mov    -0x8(%rbp),%rax
    373c:	0f b6 00             	movzbl (%rax),%eax
    373f:	3c 66                	cmp    $0x66,%al
    3741:	75 09                	jne    374c <get_instruction_length+0x1fb>
                    has_66_prefix = 1;
    3743:	c7 45 ec 01 00 00 00 	movl   $0x1,-0x14(%rbp)
                    break;
    374a:	eb 13                	jmp    375f <get_instruction_length+0x20e>
                }
                check_ptr++;
    374c:	48 83 45 f8 01       	addq   $0x1,-0x8(%rbp)
            while (check_ptr < inst_ptr - 1) {
    3751:	48 8b 45 f0          	mov    -0x10(%rbp),%rax
    3755:	48 83 e8 01          	sub    $0x1,%rax
    3759:	48 39 45 f8          	cmp    %rax,-0x8(%rbp)
    375d:	72 d9                	jb     3738 <get_instruction_length+0x1e7>
            }
            length += has_66_prefix ? 2 : 4;  /* 16-bit or 32-bit immediate */
    375f:	83 7d ec 00          	cmpl   $0x0,-0x14(%rbp)
    3763:	74 07                	je     376c <get_instruction_length+0x21b>
    3765:	b8 02 00 00 00       	mov    $0x2,%eax
    376a:	eb 05                	jmp    3771 <get_instruction_length+0x220>
    376c:	b8 04 00 00 00       	mov    $0x4,%eax
    3771:	01 45 e4             	add    %eax,-0x1c(%rbp)
        }
    }

    return length;
    3774:	8b 45 e4             	mov    -0x1c(%rbp),%eax
}
    3777:	5d                   	pop    %rbp
    3778:	c3                   	ret    

0000000000003779 <get_destination_register_from_modrm>:

/* Helper function to extract destination register from ModR/M byte for read operations */
static int get_destination_register_from_modrm(uint8_t *instruction, int is_two_byte_opcode, uint8_t opcode) {
    3779:	f3 0f 1e fa          	endbr64 
    377d:	55                   	push   %rbp
    377e:	48 89 e5             	mov    %rsp,%rbp
    3781:	48 89 7d e8          	mov    %rdi,-0x18(%rbp)
    3785:	89 75 e4             	mov    %esi,-0x1c(%rbp)
    3788:	89 d0                	mov    %edx,%eax
    378a:	88 45 e0             	mov    %al,-0x20(%rbp)
    (void)opcode; /* Mark parameter as used - may be needed for future instruction-specific handling */
    uint8_t *inst_ptr = instruction;
    378d:	48 8b 45 e8          	mov    -0x18(%rbp),%rax
    3791:	48 89 45 f8          	mov    %rax,-0x8(%rbp)

    /* Skip prefixes */
    while (*inst_ptr == 0xF0 || *inst_ptr == 0xF2 || *inst_ptr == 0xF3 ||
    3795:	eb 05                	jmp    379c <get_destination_register_from_modrm+0x23>
           *inst_ptr == 0x2E || *inst_ptr == 0x36 || *inst_ptr == 0x3E ||
           *inst_ptr == 0x26 || *inst_ptr == 0x64 || *inst_ptr == 0x65 ||
           *inst_ptr == 0x66 || *inst_ptr == 0x67) {
        inst_ptr++;
    3797:	48 83 45 f8 01       	addq   $0x1,-0x8(%rbp)
    while (*inst_ptr == 0xF0 || *inst_ptr == 0xF2 || *inst_ptr == 0xF3 ||
    379c:	48 8b 45 f8          	mov    -0x8(%rbp),%rax
    37a0:	0f b6 00             	movzbl (%rax),%eax
           *inst_ptr == 0x66 || *inst_ptr == 0x67) {
    37a3:	3c f0                	cmp    $0xf0,%al
    37a5:	74 f0                	je     3797 <get_destination_register_from_modrm+0x1e>
    while (*inst_ptr == 0xF0 || *inst_ptr == 0xF2 || *inst_ptr == 0xF3 ||
    37a7:	48 8b 45 f8          	mov    -0x8(%rbp),%rax
    37ab:	0f b6 00             	movzbl (%rax),%eax
    37ae:	3c f2                	cmp    $0xf2,%al
    37b0:	74 e5                	je     3797 <get_destination_register_from_modrm+0x1e>
    37b2:	48 8b 45 f8          	mov    -0x8(%rbp),%rax
    37b6:	0f b6 00             	movzbl (%rax),%eax
    37b9:	3c f3                	cmp    $0xf3,%al
    37bb:	74 da                	je     3797 <get_destination_register_from_modrm+0x1e>
           *inst_ptr == 0x2E || *inst_ptr == 0x36 || *inst_ptr == 0x3E ||
    37bd:	48 8b 45 f8          	mov    -0x8(%rbp),%rax
    37c1:	0f b6 00             	movzbl (%rax),%eax
    while (*inst_ptr == 0xF0 || *inst_ptr == 0xF2 || *inst_ptr == 0xF3 ||
    37c4:	3c 2e                	cmp    $0x2e,%al
    37c6:	74 cf                	je     3797 <get_destination_register_from_modrm+0x1e>
           *inst_ptr == 0x2E || *inst_ptr == 0x36 || *inst_ptr == 0x3E ||
    37c8:	48 8b 45 f8          	mov    -0x8(%rbp),%rax
    37cc:	0f b6 00             	movzbl (%rax),%eax
    37cf:	3c 36                	cmp    $0x36,%al
    37d1:	74 c4                	je     3797 <get_destination_register_from_modrm+0x1e>
    37d3:	48 8b 45 f8          	mov    -0x8(%rbp),%rax
    37d7:	0f b6 00             	movzbl (%rax),%eax
    37da:	3c 3e                	cmp    $0x3e,%al
    37dc:	74 b9                	je     3797 <get_destination_register_from_modrm+0x1e>
           *inst_ptr == 0x26 || *inst_ptr == 0x64 || *inst_ptr == 0x65 ||
    37de:	48 8b 45 f8          	mov    -0x8(%rbp),%rax
    37e2:	0f b6 00             	movzbl (%rax),%eax
           *inst_ptr == 0x2E || *inst_ptr == 0x36 || *inst_ptr == 0x3E ||
    37e5:	3c 26                	cmp    $0x26,%al
    37e7:	74 ae                	je     3797 <get_destination_register_from_modrm+0x1e>
           *inst_ptr == 0x26 || *inst_ptr == 0x64 || *inst_ptr == 0x65 ||
    37e9:	48 8b 45 f8          	mov    -0x8(%rbp),%rax
    37ed:	0f b6 00             	movzbl (%rax),%eax
    37f0:	3c 64                	cmp    $0x64,%al
    37f2:	74 a3                	je     3797 <get_destination_register_from_modrm+0x1e>
    37f4:	48 8b 45 f8          	mov    -0x8(%rbp),%rax
    37f8:	0f b6 00             	movzbl (%rax),%eax
    37fb:	3c 65                	cmp    $0x65,%al
    37fd:	74 98                	je     3797 <get_destination_register_from_modrm+0x1e>
           *inst_ptr == 0x66 || *inst_ptr == 0x67) {
    37ff:	48 8b 45 f8          	mov    -0x8(%rbp),%rax
    3803:	0f b6 00             	movzbl (%rax),%eax
           *inst_ptr == 0x26 || *inst_ptr == 0x64 || *inst_ptr == 0x65 ||
    3806:	3c 66                	cmp    $0x66,%al
    3808:	74 8d                	je     3797 <get_destination_register_from_modrm+0x1e>
           *inst_ptr == 0x66 || *inst_ptr == 0x67) {
    380a:	48 8b 45 f8          	mov    -0x8(%rbp),%rax
    380e:	0f b6 00             	movzbl (%rax),%eax
    3811:	3c 67                	cmp    $0x67,%al
    3813:	74 82                	je     3797 <get_destination_register_from_modrm+0x1e>
    }

    /* Skip REX prefix if present */
    uint8_t rex_prefix = 0;
    3815:	c6 45 f5 00          	movb   $0x0,-0xb(%rbp)
    if (*inst_ptr >= 0x40 && *inst_ptr <= 0x4F) {
    3819:	48 8b 45 f8          	mov    -0x8(%rbp),%rax
    381d:	0f b6 00             	movzbl (%rax),%eax
    3820:	3c 3f                	cmp    $0x3f,%al
    3822:	76 1a                	jbe    383e <get_destination_register_from_modrm+0xc5>
    3824:	48 8b 45 f8          	mov    -0x8(%rbp),%rax
    3828:	0f b6 00             	movzbl (%rax),%eax
    382b:	3c 4f                	cmp    $0x4f,%al
    382d:	77 0f                	ja     383e <get_destination_register_from_modrm+0xc5>
        rex_prefix = *inst_ptr;
    382f:	48 8b 45 f8          	mov    -0x8(%rbp),%rax
    3833:	0f b6 00             	movzbl (%rax),%eax
    3836:	88 45 f5             	mov    %al,-0xb(%rbp)
        inst_ptr++;
    3839:	48 83 45 f8 01       	addq   $0x1,-0x8(%rbp)
    }

    /* Skip opcode(s) */
    inst_ptr++; /* Skip first opcode byte */
    383e:	48 83 45 f8 01       	addq   $0x1,-0x8(%rbp)
    if (is_two_byte_opcode) {
    3843:	83 7d e4 00          	cmpl   $0x0,-0x1c(%rbp)
    3847:	74 05                	je     384e <get_destination_register_from_modrm+0xd5>
        inst_ptr++; /* Skip second opcode byte for 0x0F prefixed instructions */
    3849:	48 83 45 f8 01       	addq   $0x1,-0x8(%rbp)
    }

    /* Get ModR/M byte */
    uint8_t modrm = *inst_ptr;
    384e:	48 8b 45 f8          	mov    -0x8(%rbp),%rax
    3852:	0f b6 00             	movzbl (%rax),%eax
    3855:	88 45 f7             	mov    %al,-0x9(%rbp)
    uint8_t reg_field = (modrm >> 3) & 0x07; /* Bits 5-3 contain register field */
    3858:	0f b6 45 f7          	movzbl -0x9(%rbp),%eax
    385c:	c0 e8 03             	shr    $0x3,%al
    385f:	83 e0 07             	and    $0x7,%eax
    3862:	88 45 f6             	mov    %al,-0xa(%rbp)

    /* Apply REX.R extension if present */
    if (rex_prefix & 0x04) { /* REX.R bit set */
    3865:	0f b6 45 f5          	movzbl -0xb(%rbp),%eax
    3869:	83 e0 04             	and    $0x4,%eax
    386c:	85 c0                	test   %eax,%eax
    386e:	74 04                	je     3874 <get_destination_register_from_modrm+0xfb>
        reg_field |= 0x08;
    3870:	80 4d f6 08          	orb    $0x8,-0xa(%rbp)
    }

    /* Map register field to x86-64 register constants */
    /* For most read instructions, the reg field specifies the destination register */
    switch (reg_field) {
    3874:	0f b6 45 f6          	movzbl -0xa(%rbp),%eax
    3878:	83 f8 0f             	cmp    $0xf,%eax
    387b:	0f 87 93 00 00 00    	ja     3914 <get_destination_register_from_modrm+0x19b>
    3881:	89 c0                	mov    %eax,%eax
    3883:	48 8d 14 85 00 00 00 	lea    0x0(,%rax,4),%rdx
    388a:	00 
    388b:	48 8d 05 de 3b 00 00 	lea    0x3bde(%rip),%rax        # 7470 <s_timerChnBase+0x90>
    3892:	8b 04 02             	mov    (%rdx,%rax,1),%eax
    3895:	48 98                	cltq   
    3897:	48 8d 15 d2 3b 00 00 	lea    0x3bd2(%rip),%rdx        # 7470 <s_timerChnBase+0x90>
    389e:	48 01 d0             	add    %rdx,%rax
    38a1:	3e ff e0             	notrack jmp *%rax
        case 0: return REG_RAX;
    38a4:	b8 0d 00 00 00       	mov    $0xd,%eax
    38a9:	eb 6e                	jmp    3919 <get_destination_register_from_modrm+0x1a0>
        case 1: return REG_RCX;
    38ab:	b8 0e 00 00 00       	mov    $0xe,%eax
    38b0:	eb 67                	jmp    3919 <get_destination_register_from_modrm+0x1a0>
        case 2: return REG_RDX;
    38b2:	b8 0c 00 00 00       	mov    $0xc,%eax
    38b7:	eb 60                	jmp    3919 <get_destination_register_from_modrm+0x1a0>
        case 3: return REG_RBX;
    38b9:	b8 0b 00 00 00       	mov    $0xb,%eax
    38be:	eb 59                	jmp    3919 <get_destination_register_from_modrm+0x1a0>
        case 4: return REG_RSP;
    38c0:	b8 0f 00 00 00       	mov    $0xf,%eax
    38c5:	eb 52                	jmp    3919 <get_destination_register_from_modrm+0x1a0>
        case 5: return REG_RBP;
    38c7:	b8 0a 00 00 00       	mov    $0xa,%eax
    38cc:	eb 4b                	jmp    3919 <get_destination_register_from_modrm+0x1a0>
        case 6: return REG_RSI;
    38ce:	b8 09 00 00 00       	mov    $0x9,%eax
    38d3:	eb 44                	jmp    3919 <get_destination_register_from_modrm+0x1a0>
        case 7: return REG_RDI;
    38d5:	b8 08 00 00 00       	mov    $0x8,%eax
    38da:	eb 3d                	jmp    3919 <get_destination_register_from_modrm+0x1a0>
        case 8: return REG_R8;
    38dc:	b8 00 00 00 00       	mov    $0x0,%eax
    38e1:	eb 36                	jmp    3919 <get_destination_register_from_modrm+0x1a0>
        case 9: return REG_R9;
    38e3:	b8 01 00 00 00       	mov    $0x1,%eax
    38e8:	eb 2f                	jmp    3919 <get_destination_register_from_modrm+0x1a0>
        case 10: return REG_R10;
    38ea:	b8 02 00 00 00       	mov    $0x2,%eax
    38ef:	eb 28                	jmp    3919 <get_destination_register_from_modrm+0x1a0>
        case 11: return REG_R11;
    38f1:	b8 03 00 00 00       	mov    $0x3,%eax
    38f6:	eb 21                	jmp    3919 <get_destination_register_from_modrm+0x1a0>
        case 12: return REG_R12;
    38f8:	b8 04 00 00 00       	mov    $0x4,%eax
    38fd:	eb 1a                	jmp    3919 <get_destination_register_from_modrm+0x1a0>
        case 13: return REG_R13;
    38ff:	b8 05 00 00 00       	mov    $0x5,%eax
    3904:	eb 13                	jmp    3919 <get_destination_register_from_modrm+0x1a0>
        case 14: return REG_R14;
    3906:	b8 06 00 00 00       	mov    $0x6,%eax
    390b:	eb 0c                	jmp    3919 <get_destination_register_from_modrm+0x1a0>
        case 15: return REG_R15;
    390d:	b8 07 00 00 00       	mov    $0x7,%eax
    3912:	eb 05                	jmp    3919 <get_destination_register_from_modrm+0x1a0>
        default: return REG_RAX; /* Default fallback */
    3914:	b8 0d 00 00 00       	mov    $0xd,%eax
    }
}
    3919:	5d                   	pop    %rbp
    391a:	c3                   	ret    

000000000000391b <get_source_register_from_modrm>:

/* Helper function to extract source register from ModR/M byte for write operations */
static int get_source_register_from_modrm(uint8_t *instruction, int is_two_byte_opcode, uint8_t opcode) {
    391b:	f3 0f 1e fa          	endbr64 
    391f:	55                   	push   %rbp
    3920:	48 89 e5             	mov    %rsp,%rbp
    3923:	48 89 7d e8          	mov    %rdi,-0x18(%rbp)
    3927:	89 75 e4             	mov    %esi,-0x1c(%rbp)
    392a:	89 d0                	mov    %edx,%eax
    392c:	88 45 e0             	mov    %al,-0x20(%rbp)
    (void)opcode; /* Mark parameter as used - may be needed for future instruction-specific handling */
    uint8_t *inst_ptr = instruction;
    392f:	48 8b 45 e8          	mov    -0x18(%rbp),%rax
    3933:	48 89 45 f8          	mov    %rax,-0x8(%rbp)

    /* Skip prefixes */
    while (*inst_ptr == 0xF0 || *inst_ptr == 0xF2 || *inst_ptr == 0xF3 ||
    3937:	eb 05                	jmp    393e <get_source_register_from_modrm+0x23>
           *inst_ptr == 0x2E || *inst_ptr == 0x36 || *inst_ptr == 0x3E ||
           *inst_ptr == 0x26 || *inst_ptr == 0x64 || *inst_ptr == 0x65 ||
           *inst_ptr == 0x66 || *inst_ptr == 0x67) {
        inst_ptr++;
    3939:	48 83 45 f8 01       	addq   $0x1,-0x8(%rbp)
    while (*inst_ptr == 0xF0 || *inst_ptr == 0xF2 || *inst_ptr == 0xF3 ||
    393e:	48 8b 45 f8          	mov    -0x8(%rbp),%rax
    3942:	0f b6 00             	movzbl (%rax),%eax
           *inst_ptr == 0x66 || *inst_ptr == 0x67) {
    3945:	3c f0                	cmp    $0xf0,%al
    3947:	74 f0                	je     3939 <get_source_register_from_modrm+0x1e>
    while (*inst_ptr == 0xF0 || *inst_ptr == 0xF2 || *inst_ptr == 0xF3 ||
    3949:	48 8b 45 f8          	mov    -0x8(%rbp),%rax
    394d:	0f b6 00             	movzbl (%rax),%eax
    3950:	3c f2                	cmp    $0xf2,%al
    3952:	74 e5                	je     3939 <get_source_register_from_modrm+0x1e>
    3954:	48 8b 45 f8          	mov    -0x8(%rbp),%rax
    3958:	0f b6 00             	movzbl (%rax),%eax
    395b:	3c f3                	cmp    $0xf3,%al
    395d:	74 da                	je     3939 <get_source_register_from_modrm+0x1e>
           *inst_ptr == 0x2E || *inst_ptr == 0x36 || *inst_ptr == 0x3E ||
    395f:	48 8b 45 f8          	mov    -0x8(%rbp),%rax
    3963:	0f b6 00             	movzbl (%rax),%eax
    while (*inst_ptr == 0xF0 || *inst_ptr == 0xF2 || *inst_ptr == 0xF3 ||
    3966:	3c 2e                	cmp    $0x2e,%al
    3968:	74 cf                	je     3939 <get_source_register_from_modrm+0x1e>
           *inst_ptr == 0x2E || *inst_ptr == 0x36 || *inst_ptr == 0x3E ||
    396a:	48 8b 45 f8          	mov    -0x8(%rbp),%rax
    396e:	0f b6 00             	movzbl (%rax),%eax
    3971:	3c 36                	cmp    $0x36,%al
    3973:	74 c4                	je     3939 <get_source_register_from_modrm+0x1e>
    3975:	48 8b 45 f8          	mov    -0x8(%rbp),%rax
    3979:	0f b6 00             	movzbl (%rax),%eax
    397c:	3c 3e                	cmp    $0x3e,%al
    397e:	74 b9                	je     3939 <get_source_register_from_modrm+0x1e>
           *inst_ptr == 0x26 || *inst_ptr == 0x64 || *inst_ptr == 0x65 ||
    3980:	48 8b 45 f8          	mov    -0x8(%rbp),%rax
    3984:	0f b6 00             	movzbl (%rax),%eax
           *inst_ptr == 0x2E || *inst_ptr == 0x36 || *inst_ptr == 0x3E ||
    3987:	3c 26                	cmp    $0x26,%al
    3989:	74 ae                	je     3939 <get_source_register_from_modrm+0x1e>
           *inst_ptr == 0x26 || *inst_ptr == 0x64 || *inst_ptr == 0x65 ||
    398b:	48 8b 45 f8          	mov    -0x8(%rbp),%rax
    398f:	0f b6 00             	movzbl (%rax),%eax
    3992:	3c 64                	cmp    $0x64,%al
    3994:	74 a3                	je     3939 <get_source_register_from_modrm+0x1e>
    3996:	48 8b 45 f8          	mov    -0x8(%rbp),%rax
    399a:	0f b6 00             	movzbl (%rax),%eax
    399d:	3c 65                	cmp    $0x65,%al
    399f:	74 98                	je     3939 <get_source_register_from_modrm+0x1e>
           *inst_ptr == 0x66 || *inst_ptr == 0x67) {
    39a1:	48 8b 45 f8          	mov    -0x8(%rbp),%rax
    39a5:	0f b6 00             	movzbl (%rax),%eax
           *inst_ptr == 0x26 || *inst_ptr == 0x64 || *inst_ptr == 0x65 ||
    39a8:	3c 66                	cmp    $0x66,%al
    39aa:	74 8d                	je     3939 <get_source_register_from_modrm+0x1e>
           *inst_ptr == 0x66 || *inst_ptr == 0x67) {
    39ac:	48 8b 45 f8          	mov    -0x8(%rbp),%rax
    39b0:	0f b6 00             	movzbl (%rax),%eax
    39b3:	3c 67                	cmp    $0x67,%al
    39b5:	74 82                	je     3939 <get_source_register_from_modrm+0x1e>
    }

    /* Skip REX prefix if present */
    uint8_t rex_prefix = 0;
    39b7:	c6 45 f5 00          	movb   $0x0,-0xb(%rbp)
    if (*inst_ptr >= 0x40 && *inst_ptr <= 0x4F) {
    39bb:	48 8b 45 f8          	mov    -0x8(%rbp),%rax
    39bf:	0f b6 00             	movzbl (%rax),%eax
    39c2:	3c 3f                	cmp    $0x3f,%al
    39c4:	76 1a                	jbe    39e0 <get_source_register_from_modrm+0xc5>
    39c6:	48 8b 45 f8          	mov    -0x8(%rbp),%rax
    39ca:	0f b6 00             	movzbl (%rax),%eax
    39cd:	3c 4f                	cmp    $0x4f,%al
    39cf:	77 0f                	ja     39e0 <get_source_register_from_modrm+0xc5>
        rex_prefix = *inst_ptr;
    39d1:	48 8b 45 f8          	mov    -0x8(%rbp),%rax
    39d5:	0f b6 00             	movzbl (%rax),%eax
    39d8:	88 45 f5             	mov    %al,-0xb(%rbp)
        inst_ptr++;
    39db:	48 83 45 f8 01       	addq   $0x1,-0x8(%rbp)
    }

    /* Skip opcode(s) */
    inst_ptr++; /* Skip first opcode byte */
    39e0:	48 83 45 f8 01       	addq   $0x1,-0x8(%rbp)
    if (is_two_byte_opcode) {
    39e5:	83 7d e4 00          	cmpl   $0x0,-0x1c(%rbp)
    39e9:	74 05                	je     39f0 <get_source_register_from_modrm+0xd5>
        inst_ptr++; /* Skip second opcode byte for 0x0F prefixed instructions */
    39eb:	48 83 45 f8 01       	addq   $0x1,-0x8(%rbp)
    }

    /* Get ModR/M byte */
    uint8_t modrm = *inst_ptr;
    39f0:	48 8b 45 f8          	mov    -0x8(%rbp),%rax
    39f4:	0f b6 00             	movzbl (%rax),%eax
    39f7:	88 45 f7             	mov    %al,-0x9(%rbp)
    uint8_t reg_field = (modrm >> 3) & 0x07; /* Bits 5-3 contain register field */
    39fa:	0f b6 45 f7          	movzbl -0x9(%rbp),%eax
    39fe:	c0 e8 03             	shr    $0x3,%al
    3a01:	83 e0 07             	and    $0x7,%eax
    3a04:	88 45 f6             	mov    %al,-0xa(%rbp)

    /* Apply REX.R extension if present */
    if (rex_prefix & 0x04) { /* REX.R bit set */
    3a07:	0f b6 45 f5          	movzbl -0xb(%rbp),%eax
    3a0b:	83 e0 04             	and    $0x4,%eax
    3a0e:	85 c0                	test   %eax,%eax
    3a10:	74 04                	je     3a16 <get_source_register_from_modrm+0xfb>
        reg_field |= 0x08;
    3a12:	80 4d f6 08          	orb    $0x8,-0xa(%rbp)
    }

    /* Map register field to x86-64 register constants */
    /* For write instructions like mov [mem], reg, the reg field specifies the source register */
    switch (reg_field) {
    3a16:	0f b6 45 f6          	movzbl -0xa(%rbp),%eax
    3a1a:	83 f8 0f             	cmp    $0xf,%eax
    3a1d:	0f 87 93 00 00 00    	ja     3ab6 <get_source_register_from_modrm+0x19b>
    3a23:	89 c0                	mov    %eax,%eax
    3a25:	48 8d 14 85 00 00 00 	lea    0x0(,%rax,4),%rdx
    3a2c:	00 
    3a2d:	48 8d 05 7c 3a 00 00 	lea    0x3a7c(%rip),%rax        # 74b0 <s_timerChnBase+0xd0>
    3a34:	8b 04 02             	mov    (%rdx,%rax,1),%eax
    3a37:	48 98                	cltq   
    3a39:	48 8d 15 70 3a 00 00 	lea    0x3a70(%rip),%rdx        # 74b0 <s_timerChnBase+0xd0>
    3a40:	48 01 d0             	add    %rdx,%rax
    3a43:	3e ff e0             	notrack jmp *%rax
        case 0: return REG_RAX;
    3a46:	b8 0d 00 00 00       	mov    $0xd,%eax
    3a4b:	eb 6e                	jmp    3abb <get_source_register_from_modrm+0x1a0>
        case 1: return REG_RCX;
    3a4d:	b8 0e 00 00 00       	mov    $0xe,%eax
    3a52:	eb 67                	jmp    3abb <get_source_register_from_modrm+0x1a0>
        case 2: return REG_RDX;
    3a54:	b8 0c 00 00 00       	mov    $0xc,%eax
    3a59:	eb 60                	jmp    3abb <get_source_register_from_modrm+0x1a0>
        case 3: return REG_RBX;
    3a5b:	b8 0b 00 00 00       	mov    $0xb,%eax
    3a60:	eb 59                	jmp    3abb <get_source_register_from_modrm+0x1a0>
        case 4: return REG_RSP;
    3a62:	b8 0f 00 00 00       	mov    $0xf,%eax
    3a67:	eb 52                	jmp    3abb <get_source_register_from_modrm+0x1a0>
        case 5: return REG_RBP;
    3a69:	b8 0a 00 00 00       	mov    $0xa,%eax
    3a6e:	eb 4b                	jmp    3abb <get_source_register_from_modrm+0x1a0>
        case 6: return REG_RSI;
    3a70:	b8 09 00 00 00       	mov    $0x9,%eax
    3a75:	eb 44                	jmp    3abb <get_source_register_from_modrm+0x1a0>
        case 7: return REG_RDI;
    3a77:	b8 08 00 00 00       	mov    $0x8,%eax
    3a7c:	eb 3d                	jmp    3abb <get_source_register_from_modrm+0x1a0>
        case 8: return REG_R8;
    3a7e:	b8 00 00 00 00       	mov    $0x0,%eax
    3a83:	eb 36                	jmp    3abb <get_source_register_from_modrm+0x1a0>
        case 9: return REG_R9;
    3a85:	b8 01 00 00 00       	mov    $0x1,%eax
    3a8a:	eb 2f                	jmp    3abb <get_source_register_from_modrm+0x1a0>
        case 10: return REG_R10;
    3a8c:	b8 02 00 00 00       	mov    $0x2,%eax
    3a91:	eb 28                	jmp    3abb <get_source_register_from_modrm+0x1a0>
        case 11: return REG_R11;
    3a93:	b8 03 00 00 00       	mov    $0x3,%eax
    3a98:	eb 21                	jmp    3abb <get_source_register_from_modrm+0x1a0>
        case 12: return REG_R12;
    3a9a:	b8 04 00 00 00       	mov    $0x4,%eax
    3a9f:	eb 1a                	jmp    3abb <get_source_register_from_modrm+0x1a0>
        case 13: return REG_R13;
    3aa1:	b8 05 00 00 00       	mov    $0x5,%eax
    3aa6:	eb 13                	jmp    3abb <get_source_register_from_modrm+0x1a0>
        case 14: return REG_R14;
    3aa8:	b8 06 00 00 00       	mov    $0x6,%eax
    3aad:	eb 0c                	jmp    3abb <get_source_register_from_modrm+0x1a0>
        case 15: return REG_R15;
    3aaf:	b8 07 00 00 00       	mov    $0x7,%eax
    3ab4:	eb 05                	jmp    3abb <get_source_register_from_modrm+0x1a0>
        default: return REG_RAX; /* Default fallback */
    3ab6:	b8 0d 00 00 00       	mov    $0xd,%eax
    }
}
    3abb:	5d                   	pop    %rbp
    3abc:	c3                   	ret    

0000000000003abd <interrupt_signal_handler>:

/* Signal handler for interrupt delivery from models */
static void interrupt_signal_handler(int sig, siginfo_t *info, void *context) {
    3abd:	f3 0f 1e fa          	endbr64 
    3ac1:	55                   	push   %rbp
    3ac2:	48 89 e5             	mov    %rsp,%rbp
    3ac5:	48 81 ec 40 01 00 00 	sub    $0x140,%rsp
    3acc:	89 bd dc fe ff ff    	mov    %edi,-0x124(%rbp)
    3ad2:	48 89 b5 d0 fe ff ff 	mov    %rsi,-0x130(%rbp)
    3ad9:	48 89 95 c8 fe ff ff 	mov    %rdx,-0x138(%rbp)
    3ae0:	64 48 8b 04 25 28 00 	mov    %fs:0x28,%rax
    3ae7:	00 00 
    3ae9:	48 89 45 f8          	mov    %rax,-0x8(%rbp)
    3aed:	31 c0                	xor    %eax,%eax
    (void)context;  /* Mark parameter as used */
    (void)info;     /* Mark parameter as used */

    /* Read interrupt details from temporary file */
    char interrupt_file[256];
    snprintf(interrupt_file, sizeof(interrupt_file), "/tmp/icd3_interrupt_%d", getpid());
    3aef:	e8 4c e8 ff ff       	call   2340 <getpid@plt>
    3af4:	89 c2                	mov    %eax,%edx
    3af6:	48 8d 85 f0 fe ff ff 	lea    -0x110(%rbp),%rax
    3afd:	89 d1                	mov    %edx,%ecx
    3aff:	48 8d 15 ea 39 00 00 	lea    0x39ea(%rip),%rdx        # 74f0 <s_timerChnBase+0x110>
    3b06:	be 00 01 00 00       	mov    $0x100,%esi
    3b0b:	48 89 c7             	mov    %rax,%rdi
    3b0e:	b8 00 00 00 00       	mov    $0x0,%eax
    3b13:	e8 98 e8 ff ff       	call   23b0 <snprintf@plt>

    FILE *f = fopen(interrupt_file, "r");
    3b18:	48 8d 85 f0 fe ff ff 	lea    -0x110(%rbp),%rax
    3b1f:	48 8d 15 e1 39 00 00 	lea    0x39e1(%rip),%rdx        # 7507 <s_timerChnBase+0x127>
    3b26:	48 89 d6             	mov    %rdx,%rsi
    3b29:	48 89 c7             	mov    %rax,%rdi
    3b2c:	e8 5f e9 ff ff       	call   2490 <fopen@plt>
    3b31:	48 89 85 e8 fe ff ff 	mov    %rax,-0x118(%rbp)
    if (f) {
    3b38:	48 83 bd e8 fe ff ff 	cmpq   $0x0,-0x118(%rbp)
    3b3f:	00 
    3b40:	0f 84 e8 00 00 00    	je     3c2e <interrupt_signal_handler+0x171>
        uint32_t device_id, interrupt_id;
        if (fscanf(f, "%u,%u", &device_id, &interrupt_id) == 2) {
    3b46:	48 8d 8d e4 fe ff ff 	lea    -0x11c(%rbp),%rcx
    3b4d:	48 8d 95 e0 fe ff ff 	lea    -0x120(%rbp),%rdx
    3b54:	48 8b 85 e8 fe ff ff 	mov    -0x118(%rbp),%rax
    3b5b:	48 8d 35 a7 39 00 00 	lea    0x39a7(%rip),%rsi        # 7509 <s_timerChnBase+0x129>
    3b62:	48 89 c7             	mov    %rax,%rdi
    3b65:	b8 00 00 00 00       	mov    $0x0,%eax
    3b6a:	e8 a1 e7 ff ff       	call   2310 <__isoc99_fscanf@plt>
    3b6f:	83 f8 02             	cmp    $0x2,%eax
    3b72:	0f 85 a7 00 00 00    	jne    3c1f <interrupt_signal_handler+0x162>
            pending_device_interrupt = device_id;
    3b78:	8b 85 e0 fe ff ff    	mov    -0x120(%rbp),%eax
    3b7e:	89 05 fc 77 00 00    	mov    %eax,0x77fc(%rip)        # b380 <pending_device_interrupt>
            pending_interrupt_id = interrupt_id;
    3b84:	8b 85 e4 fe ff ff    	mov    -0x11c(%rbp),%eax
    3b8a:	89 05 f4 77 00 00    	mov    %eax,0x77f4(%rip)        # b384 <pending_interrupt_id>
            interrupt_pending = 1;
    3b90:	c7 05 ee 77 00 00 01 	movl   $0x1,0x77ee(%rip)        # b388 <interrupt_pending>
    3b97:	00 00 00 

            LOG_INFO("Signal interrupt received: device_id=%d, interrupt_id=0x%x handler=%p\n",
    3b9a:	8b 85 e4 fe ff ff    	mov    -0x11c(%rbp),%eax
    3ba0:	89 c0                	mov    %eax,%eax
    3ba2:	48 8d 14 c5 00 00 00 	lea    0x0(,%rax,8),%rdx
    3ba9:	00 
    3baa:	48 8d 05 4f 77 00 00 	lea    0x774f(%rip),%rax        # b300 <interrupt_handlers>
    3bb1:	48 8b 14 02          	mov    (%rdx,%rax,1),%rdx
    3bb5:	8b b5 e4 fe ff ff    	mov    -0x11c(%rbp),%esi
    3bbb:	8b 8d e0 fe ff ff    	mov    -0x120(%rbp),%ecx
    3bc1:	48 8d 05 5c 39 00 00 	lea    0x395c(%rip),%rax        # 7524 <s_timerChnBase+0x144>
    3bc8:	48 83 ec 08          	sub    $0x8,%rsp
    3bcc:	52                   	push   %rdx
    3bcd:	41 89 f1             	mov    %esi,%r9d
    3bd0:	41 89 c8             	mov    %ecx,%r8d
    3bd3:	48 8d 15 5e 39 00 00 	lea    0x395e(%rip),%rdx        # 7538 <s_timerChnBase+0x158>
    3bda:	48 89 d1             	mov    %rdx,%rcx
    3bdd:	48 8d 15 0c 48 00 00 	lea    0x480c(%rip),%rdx        # 83f0 <__func__.8>
    3be4:	48 89 c6             	mov    %rax,%rsi
    3be7:	bf 01 00 00 00       	mov    $0x1,%edi
    3bec:	b8 00 00 00 00       	mov    $0x0,%eax
    3bf1:	e8 81 2b 00 00       	call   6777 <log_message>
    3bf6:	48 83 c4 10          	add    $0x10,%rsp
                   device_id, interrupt_id, interrupt_handlers[interrupt_id]);
            interrupt_handlers[interrupt_id](interrupt_id);
    3bfa:	8b 85 e4 fe ff ff    	mov    -0x11c(%rbp),%eax
    3c00:	89 c0                	mov    %eax,%eax
    3c02:	48 8d 14 c5 00 00 00 	lea    0x0(,%rax,8),%rdx
    3c09:	00 
    3c0a:	48 8d 05 ef 76 00 00 	lea    0x76ef(%rip),%rax        # b300 <interrupt_handlers>
    3c11:	48 8b 14 02          	mov    (%rdx,%rax,1),%rdx
    3c15:	8b 85 e4 fe ff ff    	mov    -0x11c(%rbp),%eax
    3c1b:	89 c7                	mov    %eax,%edi
    3c1d:	ff d2                	call   *%rdx
        }
        fclose(f);
    3c1f:	48 8b 85 e8 fe ff ff 	mov    -0x118(%rbp),%rax
    3c26:	48 89 c7             	mov    %rax,%rdi
    3c29:	e8 22 e7 ff ff       	call   2350 <fclose@plt>
        /* File will be cleaned up by Python model */
    }
}
    3c2e:	90                   	nop
    3c2f:	48 8b 45 f8          	mov    -0x8(%rbp),%rax
    3c33:	64 48 2b 04 25 28 00 	sub    %fs:0x28,%rax
    3c3a:	00 00 
    3c3c:	74 05                	je     3c43 <interrupt_signal_handler+0x186>
    3c3e:	e8 2d e7 ff ff       	call   2370 <__stack_chk_fail@plt>
    3c43:	c9                   	leave  
    3c44:	c3                   	ret    

0000000000003c45 <segv_handler>:
static void segv_handler(int sig, siginfo_t *info, void *context) {
    3c45:	f3 0f 1e fa          	endbr64 
    3c49:	55                   	push   %rbp
    3c4a:	48 89 e5             	mov    %rsp,%rbp
    3c4d:	48 81 ec 70 03 00 00 	sub    $0x370,%rsp
    3c54:	89 bd ac fc ff ff    	mov    %edi,-0x354(%rbp)
    3c5a:	48 89 b5 a0 fc ff ff 	mov    %rsi,-0x360(%rbp)
    3c61:	48 89 95 98 fc ff ff 	mov    %rdx,-0x368(%rbp)
    3c68:	64 48 8b 04 25 28 00 	mov    %fs:0x28,%rax
    3c6f:	00 00 
    3c71:	48 89 45 f8          	mov    %rax,-0x8(%rbp)
    3c75:	31 c0                	xor    %eax,%eax
    (void)sig; /* Mark parameter as used */
    uintptr_t fault_addr = (uintptr_t)info->si_addr;
    3c77:	48 8b 85 a0 fc ff ff 	mov    -0x360(%rbp),%rax
    3c7e:	48 8b 40 10          	mov    0x10(%rax),%rax
    3c82:	48 89 85 50 fd ff ff 	mov    %rax,-0x2b0(%rbp)
    ucontext_t *uctx = (ucontext_t *)context;
    3c89:	48 8b 85 98 fc ff ff 	mov    -0x368(%rbp),%rax
    3c90:	48 89 85 58 fd ff ff 	mov    %rax,-0x2a8(%rbp)

    /* Get the RIP (instruction pointer) to examine the instruction */
    uintptr_t rip = (uintptr_t)uctx->uc_mcontext.gregs[REG_RIP];
    3c97:	48 8b 85 58 fd ff ff 	mov    -0x2a8(%rbp),%rax
    3c9e:	48 8b 80 a8 00 00 00 	mov    0xa8(%rax),%rax
    3ca5:	48 89 85 60 fd ff ff 	mov    %rax,-0x2a0(%rbp)
    uint8_t *instruction = (uint8_t *)rip;
    3cac:	48 8b 85 60 fd ff ff 	mov    -0x2a0(%rbp),%rax
    3cb3:	48 89 85 68 fd ff ff 	mov    %rax,-0x298(%rbp)

    /* Calculate instruction length */
    int inst_length = get_instruction_length(instruction);
    3cba:	48 8b 85 68 fd ff ff 	mov    -0x298(%rbp),%rax
    3cc1:	48 89 c7             	mov    %rax,%rdi
    3cc4:	e8 88 f8 ff ff       	call   3551 <get_instruction_length>
    3cc9:	89 85 e8 fc ff ff    	mov    %eax,-0x318(%rbp)
    LOG_DEBUG("Instruction at RIP 0x%lx, length: %d bytes\n", rip, inst_length);
    3ccf:	48 8d 05 4e 38 00 00 	lea    0x384e(%rip),%rax        # 7524 <s_timerChnBase+0x144>
    3cd6:	8b 8d e8 fc ff ff    	mov    -0x318(%rbp),%ecx
    3cdc:	48 8b 95 60 fd ff ff 	mov    -0x2a0(%rbp),%rdx
    3ce3:	41 89 c9             	mov    %ecx,%r9d
    3ce6:	49 89 d0             	mov    %rdx,%r8
    3ce9:	48 8d 15 90 38 00 00 	lea    0x3890(%rip),%rdx        # 7580 <s_timerChnBase+0x1a0>
    3cf0:	48 89 d1             	mov    %rdx,%rcx
    3cf3:	48 8d 15 16 47 00 00 	lea    0x4716(%rip),%rdx        # 8410 <__func__.7>
    3cfa:	48 89 c6             	mov    %rax,%rsi
    3cfd:	bf 00 00 00 00       	mov    $0x0,%edi
    3d02:	b8 00 00 00 00       	mov    $0x0,%eax
    3d07:	e8 6b 2a 00 00       	call   6777 <log_message>

    /* Print the instruction bytes in hex */
    LOG_DEBUG("Instruction bytes: ");
    3d0c:	48 8d 05 11 38 00 00 	lea    0x3811(%rip),%rax        # 7524 <s_timerChnBase+0x144>
    3d13:	48 8d 15 92 38 00 00 	lea    0x3892(%rip),%rdx        # 75ac <s_timerChnBase+0x1cc>
    3d1a:	48 89 d1             	mov    %rdx,%rcx
    3d1d:	48 8d 15 ec 46 00 00 	lea    0x46ec(%rip),%rdx        # 8410 <__func__.7>
    3d24:	48 89 c6             	mov    %rax,%rsi
    3d27:	bf 00 00 00 00       	mov    $0x0,%edi
    3d2c:	b8 00 00 00 00       	mov    $0x0,%eax
    3d31:	e8 41 2a 00 00       	call   6777 <log_message>
    for (int i = 0; i < inst_length && i < 15; i++) {  /* Limit to 15 bytes max for safety */
    3d36:	c7 85 bc fc ff ff 00 	movl   $0x0,-0x344(%rbp)
    3d3d:	00 00 00 
    3d40:	eb 4d                	jmp    3d8f <segv_handler+0x14a>
        LOG_DEBUG("%02X ", instruction[i]);
    3d42:	8b 85 bc fc ff ff    	mov    -0x344(%rbp),%eax
    3d48:	48 63 d0             	movslq %eax,%rdx
    3d4b:	48 8b 85 68 fd ff ff 	mov    -0x298(%rbp),%rax
    3d52:	48 01 d0             	add    %rdx,%rax
    3d55:	0f b6 00             	movzbl (%rax),%eax
    3d58:	0f b6 d0             	movzbl %al,%edx
    3d5b:	48 8d 05 c2 37 00 00 	lea    0x37c2(%rip),%rax        # 7524 <s_timerChnBase+0x144>
    3d62:	41 89 d0             	mov    %edx,%r8d
    3d65:	48 8d 15 54 38 00 00 	lea    0x3854(%rip),%rdx        # 75c0 <s_timerChnBase+0x1e0>
    3d6c:	48 89 d1             	mov    %rdx,%rcx
    3d6f:	48 8d 15 9a 46 00 00 	lea    0x469a(%rip),%rdx        # 8410 <__func__.7>
    3d76:	48 89 c6             	mov    %rax,%rsi
    3d79:	bf 00 00 00 00       	mov    $0x0,%edi
    3d7e:	b8 00 00 00 00       	mov    $0x0,%eax
    3d83:	e8 ef 29 00 00       	call   6777 <log_message>
    for (int i = 0; i < inst_length && i < 15; i++) {  /* Limit to 15 bytes max for safety */
    3d88:	83 85 bc fc ff ff 01 	addl   $0x1,-0x344(%rbp)
    3d8f:	8b 85 bc fc ff ff    	mov    -0x344(%rbp),%eax
    3d95:	3b 85 e8 fc ff ff    	cmp    -0x318(%rbp),%eax
    3d9b:	7d 09                	jge    3da6 <segv_handler+0x161>
    3d9d:	83 bd bc fc ff ff 0e 	cmpl   $0xe,-0x344(%rbp)
    3da4:	7e 9c                	jle    3d42 <segv_handler+0xfd>
    }
    LOG_DEBUG("\n");
    3da6:	48 8d 05 77 37 00 00 	lea    0x3777(%rip),%rax        # 7524 <s_timerChnBase+0x144>
    3dad:	48 8d 15 12 38 00 00 	lea    0x3812(%rip),%rdx        # 75c6 <s_timerChnBase+0x1e6>
    3db4:	48 89 d1             	mov    %rdx,%rcx
    3db7:	48 8d 15 52 46 00 00 	lea    0x4652(%rip),%rdx        # 8410 <__func__.7>
    3dbe:	48 89 c6             	mov    %rax,%rsi
    3dc1:	bf 00 00 00 00       	mov    $0x0,%edi
    3dc6:	b8 00 00 00 00       	mov    $0x0,%eax
    3dcb:	e8 a7 29 00 00       	call   6777 <log_message>

    /* Check for REP STOS instructions first (memset-style bulk operations) */
    uint8_t *rep_inst_ptr = instruction;
    3dd0:	48 8b 85 68 fd ff ff 	mov    -0x298(%rbp),%rax
    3dd7:	48 89 85 28 fd ff ff 	mov    %rax,-0x2d8(%rbp)
    int is_rep_stos = 0;
    3dde:	c7 85 c0 fc ff ff 00 	movl   $0x0,-0x340(%rbp)
    3de5:	00 00 00 
    int stos_size = 1; /* Default to byte size */
    3de8:	c7 85 c4 fc ff ff 01 	movl   $0x1,-0x33c(%rbp)
    3def:	00 00 00 

    /* Check for REP prefix (0xF3) */
    if (*rep_inst_ptr == 0xF3) {
    3df2:	48 8b 85 28 fd ff ff 	mov    -0x2d8(%rbp),%rax
    3df9:	0f b6 00             	movzbl (%rax),%eax
    3dfc:	3c f3                	cmp    $0xf3,%al
    3dfe:	0f 85 ec 00 00 00    	jne    3ef0 <segv_handler+0x2ab>
        rep_inst_ptr++;
    3e04:	48 83 85 28 fd ff ff 	addq   $0x1,-0x2d8(%rbp)
    3e0b:	01 

        /* Check for 16-bit operand size prefix before STOS */
        if (*rep_inst_ptr == 0x66) {
    3e0c:	48 8b 85 28 fd ff ff 	mov    -0x2d8(%rbp),%rax
    3e13:	0f b6 00             	movzbl (%rax),%eax
    3e16:	3c 66                	cmp    $0x66,%al
    3e18:	75 12                	jne    3e2c <segv_handler+0x1e7>
            stos_size = 2; /* 16-bit word */
    3e1a:	c7 85 c4 fc ff ff 02 	movl   $0x2,-0x33c(%rbp)
    3e21:	00 00 00 
            rep_inst_ptr++;
    3e24:	48 83 85 28 fd ff ff 	addq   $0x1,-0x2d8(%rbp)
    3e2b:	01 
        }

        /* Check for STOS opcodes */
        if (*rep_inst_ptr == 0xAA) {
    3e2c:	48 8b 85 28 fd ff ff 	mov    -0x2d8(%rbp),%rax
    3e33:	0f b6 00             	movzbl (%rax),%eax
    3e36:	3c aa                	cmp    $0xaa,%al
    3e38:	75 40                	jne    3e7a <segv_handler+0x235>
            /* REP STOSB - repeat store byte */
            is_rep_stos = 1;
    3e3a:	c7 85 c0 fc ff ff 01 	movl   $0x1,-0x340(%rbp)
    3e41:	00 00 00 
            stos_size = 1;
    3e44:	c7 85 c4 fc ff ff 01 	movl   $0x1,-0x33c(%rbp)
    3e4b:	00 00 00 
            LOG_DEBUG("Detected REP STOSB instruction (bulk byte write)\n");
    3e4e:	48 8d 05 cf 36 00 00 	lea    0x36cf(%rip),%rax        # 7524 <s_timerChnBase+0x144>
    3e55:	48 8d 15 6c 37 00 00 	lea    0x376c(%rip),%rdx        # 75c8 <s_timerChnBase+0x1e8>
    3e5c:	48 89 d1             	mov    %rdx,%rcx
    3e5f:	48 8d 15 aa 45 00 00 	lea    0x45aa(%rip),%rdx        # 8410 <__func__.7>
    3e66:	48 89 c6             	mov    %rax,%rsi
    3e69:	bf 00 00 00 00       	mov    $0x0,%edi
    3e6e:	b8 00 00 00 00       	mov    $0x0,%eax
    3e73:	e8 ff 28 00 00       	call   6777 <log_message>
    3e78:	eb 76                	jmp    3ef0 <segv_handler+0x2ab>
        } else if (*rep_inst_ptr == 0xAB) {
    3e7a:	48 8b 85 28 fd ff ff 	mov    -0x2d8(%rbp),%rax
    3e81:	0f b6 00             	movzbl (%rax),%eax
    3e84:	3c ab                	cmp    $0xab,%al
    3e86:	75 68                	jne    3ef0 <segv_handler+0x2ab>
            /* REP STOSD or REP STOSW - repeat store dword/word */
            is_rep_stos = 1;
    3e88:	c7 85 c0 fc ff ff 01 	movl   $0x1,-0x340(%rbp)
    3e8f:	00 00 00 
            if (stos_size != 2) {
    3e92:	83 bd c4 fc ff ff 02 	cmpl   $0x2,-0x33c(%rbp)
    3e99:	74 0a                	je     3ea5 <segv_handler+0x260>
                stos_size = 4; /* Default to 32-bit dword if no 0x66 prefix */
    3e9b:	c7 85 c4 fc ff ff 04 	movl   $0x4,-0x33c(%rbp)
    3ea2:	00 00 00 
            }
            LOG_DEBUG("Detected REP STOS%c instruction (bulk %d-byte write)\n",
    3ea5:	83 bd c4 fc ff ff 02 	cmpl   $0x2,-0x33c(%rbp)
    3eac:	75 07                	jne    3eb5 <segv_handler+0x270>
    3eae:	b9 57 00 00 00       	mov    $0x57,%ecx
    3eb3:	eb 05                	jmp    3eba <segv_handler+0x275>
    3eb5:	b9 44 00 00 00       	mov    $0x44,%ecx
    3eba:	48 8d 05 63 36 00 00 	lea    0x3663(%rip),%rax        # 7524 <s_timerChnBase+0x144>
    3ec1:	8b 95 c4 fc ff ff    	mov    -0x33c(%rbp),%edx
    3ec7:	41 89 d1             	mov    %edx,%r9d
    3eca:	41 89 c8             	mov    %ecx,%r8d
    3ecd:	48 8d 15 2c 37 00 00 	lea    0x372c(%rip),%rdx        # 7600 <s_timerChnBase+0x220>
    3ed4:	48 89 d1             	mov    %rdx,%rcx
    3ed7:	48 8d 15 32 45 00 00 	lea    0x4532(%rip),%rdx        # 8410 <__func__.7>
    3ede:	48 89 c6             	mov    %rax,%rsi
    3ee1:	bf 00 00 00 00       	mov    $0x0,%edi
    3ee6:	b8 00 00 00 00       	mov    $0x0,%eax
    3eeb:	e8 87 28 00 00       	call   6777 <log_message>
                   stos_size == 2 ? 'W' : 'D', stos_size);
        }
    }

    /* Check for AVX/SIMD memset patterns (VEX prefix 0xC5) */
    uint8_t *avx_inst_ptr = instruction;
    3ef0:	48 8b 85 68 fd ff ff 	mov    -0x298(%rbp),%rax
    3ef7:	48 89 85 70 fd ff ff 	mov    %rax,-0x290(%rbp)
    int is_avx_memset = 0;
    3efe:	c7 85 c8 fc ff ff 00 	movl   $0x0,-0x338(%rbp)
    3f05:	00 00 00 

    if (*avx_inst_ptr == 0xC5) {
    3f08:	48 8b 85 70 fd ff ff 	mov    -0x290(%rbp),%rax
    3f0f:	0f b6 00             	movzbl (%rax),%eax
    3f12:	3c c5                	cmp    $0xc5,%al
    3f14:	0f 85 1c 04 00 00    	jne    4336 <segv_handler+0x6f1>
        /* This is a VEX-encoded AVX instruction, common in optimized memset */
        LOG_DEBUG("Detected VEX-encoded AVX instruction (likely optimized memset)\n");
    3f1a:	48 8d 05 03 36 00 00 	lea    0x3603(%rip),%rax        # 7524 <s_timerChnBase+0x144>
    3f21:	48 8d 15 10 37 00 00 	lea    0x3710(%rip),%rdx        # 7638 <s_timerChnBase+0x258>
    3f28:	48 89 d1             	mov    %rdx,%rcx
    3f2b:	48 8d 15 de 44 00 00 	lea    0x44de(%rip),%rdx        # 8410 <__func__.7>
    3f32:	48 89 c6             	mov    %rax,%rsi
    3f35:	bf 00 00 00 00       	mov    $0x0,%edi
    3f3a:	b8 00 00 00 00       	mov    $0x0,%eax
    3f3f:	e8 33 28 00 00       	call   6777 <log_message>
        /* For AVX memset, we'll simulate it as a series of writes based on the fault address */
        /* We can't easily decode the full AVX instruction, but we can infer the operation */
        /* from the context and handle it as a bulk write operation */

        /* Try to determine the operation size from the second VEX byte */
        avx_inst_ptr++; /* Skip 0xC5 */
    3f44:	48 83 85 70 fd ff ff 	addq   $0x1,-0x290(%rbp)
    3f4b:	01 
        uint8_t vex_byte2 = *avx_inst_ptr;
    3f4c:	48 8b 85 70 fd ff ff 	mov    -0x290(%rbp),%rax
    3f53:	0f b6 00             	movzbl (%rax),%eax
    3f56:	88 85 ba fc ff ff    	mov    %al,-0x346(%rbp)
        (void)vex_byte2; /* Mark as used to avoid compiler warning */

        /* For now, treat AVX memset as a conservative bulk operation */
        /* We'll use heuristics: if RCX contains a reasonable count, use it */
        uint64_t rcx_val = uctx->uc_mcontext.gregs[REG_RCX];
    3f5c:	48 8b 85 58 fd ff ff 	mov    -0x2a8(%rbp),%rax
    3f63:	48 8b 80 98 00 00 00 	mov    0x98(%rax),%rax
    3f6a:	48 89 85 78 fd ff ff 	mov    %rax,-0x288(%rbp)
        uint64_t rdi_val = uctx->uc_mcontext.gregs[REG_RDI];
    3f71:	48 8b 85 58 fd ff ff 	mov    -0x2a8(%rbp),%rax
    3f78:	48 8b 40 68          	mov    0x68(%rax),%rax
    3f7c:	48 89 85 80 fd ff ff 	mov    %rax,-0x280(%rbp)

        /* If RDI points to our device memory and RCX looks like a count, handle as bulk write */
        for (int i = 0; i < device_count; i++) {
    3f83:	c7 85 cc fc ff ff 00 	movl   $0x0,-0x334(%rbp)
    3f8a:	00 00 00 
    3f8d:	e9 5f 03 00 00       	jmp    42f1 <segv_handler+0x6ac>
            uint32_t device_base = devices[i].base_address;
    3f92:	8b 85 cc fc ff ff    	mov    -0x334(%rbp),%eax
    3f98:	48 98                	cltq   
    3f9a:	48 c1 e0 05          	shl    $0x5,%rax
    3f9e:	48 89 c2             	mov    %rax,%rdx
    3fa1:	48 8d 05 3c 71 00 00 	lea    0x713c(%rip),%rax        # b0e4 <devices+0x4>
    3fa8:	8b 04 02             	mov    (%rdx,%rax,1),%eax
    3fab:	89 85 ec fc ff ff    	mov    %eax,-0x314(%rbp)
            uint32_t device_size = devices[i].size;
    3fb1:	8b 85 cc fc ff ff    	mov    -0x334(%rbp),%eax
    3fb7:	48 98                	cltq   
    3fb9:	48 c1 e0 05          	shl    $0x5,%rax
    3fbd:	48 89 c2             	mov    %rax,%rdx
    3fc0:	48 8d 05 21 71 00 00 	lea    0x7121(%rip),%rax        # b0e8 <devices+0x8>
    3fc7:	8b 04 02             	mov    (%rdx,%rax,1),%eax
    3fca:	89 85 f0 fc ff ff    	mov    %eax,-0x310(%rbp)

            if (fault_addr >= device_base && fault_addr < device_base + device_size) {
    3fd0:	8b 85 ec fc ff ff    	mov    -0x314(%rbp),%eax
    3fd6:	48 39 85 50 fd ff ff 	cmp    %rax,-0x2b0(%rbp)
    3fdd:	0f 82 07 03 00 00    	jb     42ea <segv_handler+0x6a5>
    3fe3:	8b 95 ec fc ff ff    	mov    -0x314(%rbp),%edx
    3fe9:	8b 85 f0 fc ff ff    	mov    -0x310(%rbp),%eax
    3fef:	01 d0                	add    %edx,%eax
    3ff1:	89 c0                	mov    %eax,%eax
    3ff3:	48 39 85 50 fd ff ff 	cmp    %rax,-0x2b0(%rbp)
    3ffa:	0f 83 ea 02 00 00    	jae    42ea <segv_handler+0x6a5>
                /* This AVX instruction is targeting our device memory */
                if (rcx_val > 0 && rcx_val <= 1024 && rdi_val == fault_addr) {
    4000:	48 83 bd 78 fd ff ff 	cmpq   $0x0,-0x288(%rbp)
    4007:	00 
    4008:	0f 84 a6 02 00 00    	je     42b4 <segv_handler+0x66f>
    400e:	48 81 bd 78 fd ff ff 	cmpq   $0x400,-0x288(%rbp)
    4015:	00 04 00 00 
    4019:	0f 87 95 02 00 00    	ja     42b4 <segv_handler+0x66f>
    401f:	48 8b 85 80 fd ff ff 	mov    -0x280(%rbp),%rax
    4026:	48 3b 85 50 fd ff ff 	cmp    -0x2b0(%rbp),%rax
    402d:	0f 85 81 02 00 00    	jne    42b4 <segv_handler+0x66f>
                    /* Looks like a memset pattern: RDI=destination, RCX=count */
                    is_avx_memset = 1;
    4033:	c7 85 c8 fc ff ff 01 	movl   $0x1,-0x338(%rbp)
    403a:	00 00 00 
                    LOG_DEBUG("AVX memset pattern detected: dest=0x%lx, count=%lu\n", rdi_val, rcx_val);
    403d:	48 8d 05 e0 34 00 00 	lea    0x34e0(%rip),%rax        # 7524 <s_timerChnBase+0x144>
    4044:	48 8b 8d 78 fd ff ff 	mov    -0x288(%rbp),%rcx
    404b:	48 8b 95 80 fd ff ff 	mov    -0x280(%rbp),%rdx
    4052:	49 89 c9             	mov    %rcx,%r9
    4055:	49 89 d0             	mov    %rdx,%r8
    4058:	48 8d 15 19 36 00 00 	lea    0x3619(%rip),%rdx        # 7678 <s_timerChnBase+0x298>
    405f:	48 89 d1             	mov    %rdx,%rcx
    4062:	48 8d 15 a7 43 00 00 	lea    0x43a7(%rip),%rdx        # 8410 <__func__.7>
    4069:	48 89 c6             	mov    %rax,%rsi
    406c:	bf 00 00 00 00       	mov    $0x0,%edi
    4071:	b8 00 00 00 00       	mov    $0x0,%eax
    4076:	e8 fc 26 00 00       	call   6777 <log_message>

                    /* Perform conservative byte-wise memset simulation */
                    uint64_t value = uctx->uc_mcontext.gregs[REG_RAX] & 0xFF; /* Use AL for value */
    407b:	48 8b 85 58 fd ff ff 	mov    -0x2a8(%rbp),%rax
    4082:	48 8b 80 90 00 00 00 	mov    0x90(%rax),%rax
    4089:	25 ff 00 00 00       	and    $0xff,%eax
    408e:	48 89 85 88 fd ff ff 	mov    %rax,-0x278(%rbp)

                    LOG_DEBUG("Simulating AVX memset: %lu bytes of 0x%02lx at 0x%lx\n",
    4095:	48 8d 05 88 34 00 00 	lea    0x3488(%rip),%rax        # 7524 <s_timerChnBase+0x144>
    409c:	48 8b 8d 88 fd ff ff 	mov    -0x278(%rbp),%rcx
    40a3:	48 8b 95 78 fd ff ff 	mov    -0x288(%rbp),%rdx
    40aa:	48 83 ec 08          	sub    $0x8,%rsp
    40ae:	ff b5 80 fd ff ff    	push   -0x280(%rbp)
    40b4:	49 89 c9             	mov    %rcx,%r9
    40b7:	49 89 d0             	mov    %rdx,%r8
    40ba:	48 8d 15 ef 35 00 00 	lea    0x35ef(%rip),%rdx        # 76b0 <s_timerChnBase+0x2d0>
    40c1:	48 89 d1             	mov    %rdx,%rcx
    40c4:	48 8d 15 45 43 00 00 	lea    0x4345(%rip),%rdx        # 8410 <__func__.7>
    40cb:	48 89 c6             	mov    %rax,%rsi
    40ce:	bf 00 00 00 00       	mov    $0x0,%edi
    40d3:	b8 00 00 00 00       	mov    $0x0,%eax
    40d8:	e8 9a 26 00 00       	call   6777 <log_message>
    40dd:	48 83 c4 10          	add    $0x10,%rsp
                           rcx_val, value, rdi_val);

                    for (uint64_t j = 0; j < rcx_val; j++) {
    40e1:	48 c7 85 30 fd ff ff 	movq   $0x0,-0x2d0(%rbp)
    40e8:	00 00 00 00 
    40ec:	e9 1c 01 00 00       	jmp    420d <segv_handler+0x5c8>
                        uint32_t write_addr = (uint32_t)(rdi_val + j);
    40f1:	48 8b 85 80 fd ff ff 	mov    -0x280(%rbp),%rax
    40f8:	89 c2                	mov    %eax,%edx
    40fa:	48 8b 85 30 fd ff ff 	mov    -0x2d0(%rbp),%rax
    4101:	01 d0                	add    %edx,%eax
    4103:	89 85 f4 fc ff ff    	mov    %eax,-0x30c(%rbp)

                        /* Ensure we stay within device bounds */
                        if (write_addr >= device_base + device_size) {
    4109:	8b 95 ec fc ff ff    	mov    -0x314(%rbp),%edx
    410f:	8b 85 f0 fc ff ff    	mov    -0x310(%rbp),%eax
    4115:	01 d0                	add    %edx,%eax
    4117:	39 85 f4 fc ff ff    	cmp    %eax,-0x30c(%rbp)
    411d:	0f 83 00 01 00 00    	jae    4223 <segv_handler+0x5de>
                            break;
                        }

                        protocol_message_t message = {0};
    4123:	48 8d 95 c0 fd ff ff 	lea    -0x240(%rbp),%rdx
    412a:	b8 00 00 00 00       	mov    $0x0,%eax
    412f:	b9 22 00 00 00       	mov    $0x22,%ecx
    4134:	48 89 d7             	mov    %rdx,%rdi
    4137:	f3 48 ab             	rep stos %rax,%es:(%rdi)
    413a:	48 89 fa             	mov    %rdi,%rdx
    413d:	89 02                	mov    %eax,(%rdx)
    413f:	48 83 c2 04          	add    $0x4,%rdx
                        message.device_id = devices[i].device_id;
    4143:	8b 85 cc fc ff ff    	mov    -0x334(%rbp),%eax
    4149:	48 98                	cltq   
    414b:	48 c1 e0 05          	shl    $0x5,%rax
    414f:	48 89 c2             	mov    %rax,%rdx
    4152:	48 8d 05 87 6f 00 00 	lea    0x6f87(%rip),%rax        # b0e0 <devices>
    4159:	8b 04 02             	mov    (%rdx,%rax,1),%eax
    415c:	89 85 c0 fd ff ff    	mov    %eax,-0x240(%rbp)
                        message.command = CMD_WRITE;
    4162:	c7 85 c4 fd ff ff 02 	movl   $0x2,-0x23c(%rbp)
    4169:	00 00 00 
                        message.address = write_addr;
    416c:	8b 85 f4 fc ff ff    	mov    -0x30c(%rbp),%eax
    4172:	89 85 c8 fd ff ff    	mov    %eax,-0x238(%rbp)
                        message.length = 1;
    4178:	c7 85 cc fd ff ff 01 	movl   $0x1,-0x234(%rbp)
    417f:	00 00 00 
                        uint8_t write_val = (uint8_t)value;
    4182:	48 8b 85 88 fd ff ff 	mov    -0x278(%rbp),%rax
    4189:	88 85 20 fd ff ff    	mov    %al,-0x2e0(%rbp)
    418f:	0f b6 85 20 fd ff ff 	movzbl -0x2e0(%rbp),%eax
                        memcpy(message.data, &write_val, 1);
    4196:	88 85 d4 fd ff ff    	mov    %al,-0x22c(%rbp)

                        protocol_message_t response = {0};
    419c:	48 8d 95 e0 fe ff ff 	lea    -0x120(%rbp),%rdx
    41a3:	b8 00 00 00 00       	mov    $0x0,%eax
    41a8:	b9 22 00 00 00       	mov    $0x22,%ecx
    41ad:	48 89 d7             	mov    %rdx,%rdi
    41b0:	f3 48 ab             	rep stos %rax,%es:(%rdi)
    41b3:	48 89 fa             	mov    %rdi,%rdx
    41b6:	89 02                	mov    %eax,(%rdx)
    41b8:	48 83 c2 04          	add    $0x4,%rdx
                        if (send_message_to_model(&message, &response) != 0) {
    41bc:	48 8d 95 e0 fe ff ff 	lea    -0x120(%rbp),%rdx
    41c3:	48 8d 85 c0 fd ff ff 	lea    -0x240(%rbp),%rax
    41ca:	48 89 d6             	mov    %rdx,%rsi
    41cd:	48 89 c7             	mov    %rax,%rdi
    41d0:	e8 3d 20 00 00       	call   6212 <send_message_to_model>
    41d5:	85 c0                	test   %eax,%eax
    41d7:	74 2c                	je     4205 <segv_handler+0x5c0>
                            LOG_DEBUG("Failed to send AVX memset write\n");
    41d9:	48 8d 05 44 33 00 00 	lea    0x3344(%rip),%rax        # 7524 <s_timerChnBase+0x144>
    41e0:	48 8d 15 01 35 00 00 	lea    0x3501(%rip),%rdx        # 76e8 <s_timerChnBase+0x308>
    41e7:	48 89 d1             	mov    %rdx,%rcx
    41ea:	48 8d 15 1f 42 00 00 	lea    0x421f(%rip),%rdx        # 8410 <__func__.7>
    41f1:	48 89 c6             	mov    %rax,%rsi
    41f4:	bf 00 00 00 00       	mov    $0x0,%edi
    41f9:	b8 00 00 00 00       	mov    $0x0,%eax
    41fe:	e8 74 25 00 00       	call   6777 <log_message>
                            break;
    4203:	eb 1f                	jmp    4224 <segv_handler+0x5df>
                    for (uint64_t j = 0; j < rcx_val; j++) {
    4205:	48 83 85 30 fd ff ff 	addq   $0x1,-0x2d0(%rbp)
    420c:	01 
    420d:	48 8b 85 30 fd ff ff 	mov    -0x2d0(%rbp),%rax
    4214:	48 3b 85 78 fd ff ff 	cmp    -0x288(%rbp),%rax
    421b:	0f 82 d0 fe ff ff    	jb     40f1 <segv_handler+0x4ac>
    4221:	eb 01                	jmp    4224 <segv_handler+0x5df>
                            break;
    4223:	90                   	nop
                        }
                    }

                    /* Update registers to simulate completion */
                    uctx->uc_mcontext.gregs[REG_RCX] = 0;
    4224:	48 8b 85 58 fd ff ff 	mov    -0x2a8(%rbp),%rax
    422b:	48 c7 80 98 00 00 00 	movq   $0x0,0x98(%rax)
    4232:	00 00 00 00 
                    uctx->uc_mcontext.gregs[REG_RDI] = rdi_val + rcx_val;
    4236:	48 8b 95 80 fd ff ff 	mov    -0x280(%rbp),%rdx
    423d:	48 8b 85 78 fd ff ff 	mov    -0x288(%rbp),%rax
    4244:	48 01 d0             	add    %rdx,%rax
    4247:	48 89 c2             	mov    %rax,%rdx
    424a:	48 8b 85 58 fd ff ff 	mov    -0x2a8(%rbp),%rax
    4251:	48 89 50 68          	mov    %rdx,0x68(%rax)

                    /* Skip the AVX instruction (conservative approach) */
                    uctx->uc_mcontext.gregs[REG_RIP] += inst_length;
    4255:	48 8b 85 58 fd ff ff 	mov    -0x2a8(%rbp),%rax
    425c:	48 8b 90 a8 00 00 00 	mov    0xa8(%rax),%rdx
    4263:	8b 85 e8 fc ff ff    	mov    -0x318(%rbp),%eax
    4269:	48 98                	cltq   
    426b:	48 01 c2             	add    %rax,%rdx
    426e:	48 8b 85 58 fd ff ff 	mov    -0x2a8(%rbp),%rax
    4275:	48 89 90 a8 00 00 00 	mov    %rdx,0xa8(%rax)
                    LOG_DEBUG("AVX memset simulation completed, advanced RIP by %d bytes\n", inst_length);
    427c:	48 8d 05 a1 32 00 00 	lea    0x32a1(%rip),%rax        # 7524 <s_timerChnBase+0x144>
    4283:	8b 95 e8 fc ff ff    	mov    -0x318(%rbp),%edx
    4289:	41 89 d0             	mov    %edx,%r8d
    428c:	48 8d 15 7d 34 00 00 	lea    0x347d(%rip),%rdx        # 7710 <s_timerChnBase+0x330>
    4293:	48 89 d1             	mov    %rdx,%rcx
    4296:	48 8d 15 73 41 00 00 	lea    0x4173(%rip),%rdx        # 8410 <__func__.7>
    429d:	48 89 c6             	mov    %rax,%rsi
    42a0:	bf 00 00 00 00       	mov    $0x0,%edi
    42a5:	b8 00 00 00 00       	mov    $0x0,%eax
    42aa:	e8 c8 24 00 00       	call   6777 <log_message>

                    return;
    42af:	e9 0e 14 00 00       	jmp    56c2 <segv_handler+0x1a7d>
                } else {
                    /* AVX instruction but doesn't look like memset, fall back to single operation */
                    LOG_DEBUG("AVX instruction targeting device but not memset pattern, treating as single write\n");
    42b4:	48 8d 05 69 32 00 00 	lea    0x3269(%rip),%rax        # 7524 <s_timerChnBase+0x144>
    42bb:	48 8d 15 8e 34 00 00 	lea    0x348e(%rip),%rdx        # 7750 <s_timerChnBase+0x370>
    42c2:	48 89 d1             	mov    %rdx,%rcx
    42c5:	48 8d 15 44 41 00 00 	lea    0x4144(%rip),%rdx        # 8410 <__func__.7>
    42cc:	48 89 c6             	mov    %rax,%rsi
    42cf:	bf 00 00 00 00       	mov    $0x0,%edi
    42d4:	b8 00 00 00 00       	mov    $0x0,%eax
    42d9:	e8 99 24 00 00       	call   6777 <log_message>
                    is_avx_memset = 0;
    42de:	c7 85 c8 fc ff ff 00 	movl   $0x0,-0x338(%rbp)
    42e5:	00 00 00 
                }
                break;
    42e8:	eb 19                	jmp    4303 <segv_handler+0x6be>
        for (int i = 0; i < device_count; i++) {
    42ea:	83 85 cc fc ff ff 01 	addl   $0x1,-0x334(%rbp)
    42f1:	8b 05 e9 6f 00 00    	mov    0x6fe9(%rip),%eax        # b2e0 <device_count>
    42f7:	39 85 cc fc ff ff    	cmp    %eax,-0x334(%rbp)
    42fd:	0f 8c 8f fc ff ff    	jl     3f92 <segv_handler+0x34d>
            }
        }

        if (!is_avx_memset) {
    4303:	83 bd c8 fc ff ff 00 	cmpl   $0x0,-0x338(%rbp)
    430a:	75 2a                	jne    4336 <segv_handler+0x6f1>
            /* AVX instruction but not targeting our device or not memset pattern */
            LOG_DEBUG("AVX instruction not targeting device memory or not memset, treating as regular instruction\n");
    430c:	48 8d 05 11 32 00 00 	lea    0x3211(%rip),%rax        # 7524 <s_timerChnBase+0x144>
    4313:	48 8d 15 8e 34 00 00 	lea    0x348e(%rip),%rdx        # 77a8 <s_timerChnBase+0x3c8>
    431a:	48 89 d1             	mov    %rdx,%rcx
    431d:	48 8d 15 ec 40 00 00 	lea    0x40ec(%rip),%rdx        # 8410 <__func__.7>
    4324:	48 89 c6             	mov    %rax,%rsi
    4327:	bf 00 00 00 00       	mov    $0x0,%edi
    432c:	b8 00 00 00 00       	mov    $0x0,%eax
    4331:	e8 41 24 00 00       	call   6777 <log_message>
        }
    }

    /* Handle REP STOS or AVX memset instructions */
    if (is_rep_stos || is_avx_memset) {
    4336:	83 bd c0 fc ff ff 00 	cmpl   $0x0,-0x340(%rbp)
    433d:	75 0d                	jne    434c <segv_handler+0x707>
    433f:	83 bd c8 fc ff ff 00 	cmpl   $0x0,-0x338(%rbp)
    4346:	0f 84 75 05 00 00    	je     48c1 <segv_handler+0xc7c>
        if (is_avx_memset) {
    434c:	83 bd c8 fc ff ff 00 	cmpl   $0x0,-0x338(%rbp)
    4353:	0f 85 68 13 00 00    	jne    56c1 <segv_handler+0x1a7c>
            return;
        }

        /* Handle REP STOS instructions */
        /* Extract registers for REP STOS operation */
        uint64_t count = uctx->uc_mcontext.gregs[REG_RCX];     /* Count of operations */
    4359:	48 8b 85 58 fd ff ff 	mov    -0x2a8(%rbp),%rax
    4360:	48 8b 80 98 00 00 00 	mov    0x98(%rax),%rax
    4367:	48 89 85 38 fd ff ff 	mov    %rax,-0x2c8(%rbp)
        uint64_t dest_addr = uctx->uc_mcontext.gregs[REG_RDI]; /* Destination address */
    436e:	48 8b 85 58 fd ff ff 	mov    -0x2a8(%rbp),%rax
    4375:	48 8b 40 68          	mov    0x68(%rax),%rax
    4379:	48 89 85 a8 fd ff ff 	mov    %rax,-0x258(%rbp)
        uint64_t value = uctx->uc_mcontext.gregs[REG_RAX];     /* Value to store */
    4380:	48 8b 85 58 fd ff ff 	mov    -0x2a8(%rbp),%rax
    4387:	48 8b 80 90 00 00 00 	mov    0x90(%rax),%rax
    438e:	48 89 85 b0 fd ff ff 	mov    %rax,-0x250(%rbp)

        LOG_DEBUG("REP STOS: count=%lu, dest=0x%lx, value=0x%lx, size=%d\n",
    4395:	48 8d 05 88 31 00 00 	lea    0x3188(%rip),%rax        # 7524 <s_timerChnBase+0x144>
    439c:	48 8b b5 a8 fd ff ff 	mov    -0x258(%rbp),%rsi
    43a3:	48 8b 8d 38 fd ff ff 	mov    -0x2c8(%rbp),%rcx
    43aa:	8b 95 c4 fc ff ff    	mov    -0x33c(%rbp),%edx
    43b0:	52                   	push   %rdx
    43b1:	ff b5 b0 fd ff ff    	push   -0x250(%rbp)
    43b7:	49 89 f1             	mov    %rsi,%r9
    43ba:	49 89 c8             	mov    %rcx,%r8
    43bd:	48 8d 15 44 34 00 00 	lea    0x3444(%rip),%rdx        # 7808 <s_timerChnBase+0x428>
    43c4:	48 89 d1             	mov    %rdx,%rcx
    43c7:	48 8d 15 42 40 00 00 	lea    0x4042(%rip),%rdx        # 8410 <__func__.7>
    43ce:	48 89 c6             	mov    %rax,%rsi
    43d1:	bf 00 00 00 00       	mov    $0x0,%edi
    43d6:	b8 00 00 00 00       	mov    $0x0,%eax
    43db:	e8 97 23 00 00       	call   6777 <log_message>
    43e0:	48 83 c4 10          	add    $0x10,%rsp
               count, dest_addr, value, stos_size);

        /* Find which device this address range belongs to */
        for (int i = 0; i < device_count; i++) {
    43e4:	c7 85 d0 fc ff ff 00 	movl   $0x0,-0x330(%rbp)
    43eb:	00 00 00 
    43ee:	e9 7e 04 00 00       	jmp    4871 <segv_handler+0xc2c>
            uint32_t device_base = devices[i].base_address;
    43f3:	8b 85 d0 fc ff ff    	mov    -0x330(%rbp),%eax
    43f9:	48 98                	cltq   
    43fb:	48 c1 e0 05          	shl    $0x5,%rax
    43ff:	48 89 c2             	mov    %rax,%rdx
    4402:	48 8d 05 db 6c 00 00 	lea    0x6cdb(%rip),%rax        # b0e4 <devices+0x4>
    4409:	8b 04 02             	mov    (%rdx,%rax,1),%eax
    440c:	89 85 0c fd ff ff    	mov    %eax,-0x2f4(%rbp)
            uint32_t device_size = devices[i].size;
    4412:	8b 85 d0 fc ff ff    	mov    -0x330(%rbp),%eax
    4418:	48 98                	cltq   
    441a:	48 c1 e0 05          	shl    $0x5,%rax
    441e:	48 89 c2             	mov    %rax,%rdx
    4421:	48 8d 05 c0 6c 00 00 	lea    0x6cc0(%rip),%rax        # b0e8 <devices+0x8>
    4428:	8b 04 02             	mov    (%rdx,%rax,1),%eax
    442b:	89 85 10 fd ff ff    	mov    %eax,-0x2f0(%rbp)

            /* Check if the start address falls within this device's range */
            if (dest_addr >= device_base && dest_addr < device_base + device_size) {
    4431:	8b 85 0c fd ff ff    	mov    -0x2f4(%rbp),%eax
    4437:	48 39 85 a8 fd ff ff 	cmp    %rax,-0x258(%rbp)
    443e:	0f 82 26 04 00 00    	jb     486a <segv_handler+0xc25>
    4444:	8b 95 0c fd ff ff    	mov    -0x2f4(%rbp),%edx
    444a:	8b 85 10 fd ff ff    	mov    -0x2f0(%rbp),%eax
    4450:	01 d0                	add    %edx,%eax
    4452:	89 c0                	mov    %eax,%eax
    4454:	48 39 85 a8 fd ff ff 	cmp    %rax,-0x258(%rbp)
    445b:	0f 83 09 04 00 00    	jae    486a <segv_handler+0xc25>
                LOG_DEBUG("REP STOS operation targeting device %d (base=0x%x, size=0x%x)\n",
    4461:	8b 85 d0 fc ff ff    	mov    -0x330(%rbp),%eax
    4467:	48 98                	cltq   
    4469:	48 c1 e0 05          	shl    $0x5,%rax
    446d:	48 89 c2             	mov    %rax,%rdx
    4470:	48 8d 05 69 6c 00 00 	lea    0x6c69(%rip),%rax        # b0e0 <devices>
    4477:	8b 0c 02             	mov    (%rdx,%rax,1),%ecx
    447a:	48 8d 05 a3 30 00 00 	lea    0x30a3(%rip),%rax        # 7524 <s_timerChnBase+0x144>
    4481:	8b b5 0c fd ff ff    	mov    -0x2f4(%rbp),%esi
    4487:	48 83 ec 08          	sub    $0x8,%rsp
    448b:	8b 95 10 fd ff ff    	mov    -0x2f0(%rbp),%edx
    4491:	52                   	push   %rdx
    4492:	41 89 f1             	mov    %esi,%r9d
    4495:	41 89 c8             	mov    %ecx,%r8d
    4498:	48 8d 15 a1 33 00 00 	lea    0x33a1(%rip),%rdx        # 7840 <s_timerChnBase+0x460>
    449f:	48 89 d1             	mov    %rdx,%rcx
    44a2:	48 8d 15 67 3f 00 00 	lea    0x3f67(%rip),%rdx        # 8410 <__func__.7>
    44a9:	48 89 c6             	mov    %rax,%rsi
    44ac:	bf 00 00 00 00       	mov    $0x0,%edi
    44b1:	b8 00 00 00 00       	mov    $0x0,%eax
    44b6:	e8 bc 22 00 00       	call   6777 <log_message>
    44bb:	48 83 c4 10          	add    $0x10,%rsp
                       devices[i].device_id, device_base, device_size);

                /* Ensure the entire operation stays within device bounds */
                uint64_t end_addr = dest_addr + (count * stos_size);
    44bf:	8b 85 c4 fc ff ff    	mov    -0x33c(%rbp),%eax
    44c5:	48 98                	cltq   
    44c7:	48 0f af 85 38 fd ff 	imul   -0x2c8(%rbp),%rax
    44ce:	ff 
    44cf:	48 89 c2             	mov    %rax,%rdx
    44d2:	48 8b 85 a8 fd ff ff 	mov    -0x258(%rbp),%rax
    44d9:	48 01 d0             	add    %rdx,%rax
    44dc:	48 89 85 b8 fd ff ff 	mov    %rax,-0x248(%rbp)
                if (end_addr > device_base + device_size) {
    44e3:	8b 95 0c fd ff ff    	mov    -0x2f4(%rbp),%edx
    44e9:	8b 85 10 fd ff ff    	mov    -0x2f0(%rbp),%eax
    44ef:	01 d0                	add    %edx,%eax
    44f1:	89 c0                	mov    %eax,%eax
    44f3:	48 39 85 b8 fd ff ff 	cmp    %rax,-0x248(%rbp)
    44fa:	76 59                	jbe    4555 <segv_handler+0x910>
                    LOG_DEBUG("WARNING: REP STOS operation extends beyond device bounds, truncating\n");
    44fc:	48 8d 05 21 30 00 00 	lea    0x3021(%rip),%rax        # 7524 <s_timerChnBase+0x144>
    4503:	48 8d 15 76 33 00 00 	lea    0x3376(%rip),%rdx        # 7880 <s_timerChnBase+0x4a0>
    450a:	48 89 d1             	mov    %rdx,%rcx
    450d:	48 8d 15 fc 3e 00 00 	lea    0x3efc(%rip),%rdx        # 8410 <__func__.7>
    4514:	48 89 c6             	mov    %rax,%rsi
    4517:	bf 00 00 00 00       	mov    $0x0,%edi
    451c:	b8 00 00 00 00       	mov    $0x0,%eax
    4521:	e8 51 22 00 00       	call   6777 <log_message>
                    count = (device_base + device_size - dest_addr) / stos_size;
    4526:	8b 95 0c fd ff ff    	mov    -0x2f4(%rbp),%edx
    452c:	8b 85 10 fd ff ff    	mov    -0x2f0(%rbp),%eax
    4532:	01 d0                	add    %edx,%eax
    4534:	89 c0                	mov    %eax,%eax
    4536:	48 2b 85 a8 fd ff ff 	sub    -0x258(%rbp),%rax
    453d:	8b 95 c4 fc ff ff    	mov    -0x33c(%rbp),%edx
    4543:	48 63 f2             	movslq %edx,%rsi
    4546:	ba 00 00 00 00       	mov    $0x0,%edx
    454b:	48 f7 f6             	div    %rsi
    454e:	48 89 85 38 fd ff ff 	mov    %rax,-0x2c8(%rbp)
                }

                /* Perform bulk write operation */
                LOG_DEBUG("Performing bulk write: %lu x %d-byte writes starting at 0x%lx\n",
    4555:	48 8d 05 c8 2f 00 00 	lea    0x2fc8(%rip),%rax        # 7524 <s_timerChnBase+0x144>
    455c:	8b 8d c4 fc ff ff    	mov    -0x33c(%rbp),%ecx
    4562:	48 8b 95 38 fd ff ff 	mov    -0x2c8(%rbp),%rdx
    4569:	48 83 ec 08          	sub    $0x8,%rsp
    456d:	ff b5 a8 fd ff ff    	push   -0x258(%rbp)
    4573:	41 89 c9             	mov    %ecx,%r9d
    4576:	49 89 d0             	mov    %rdx,%r8
    4579:	48 8d 15 48 33 00 00 	lea    0x3348(%rip),%rdx        # 78c8 <s_timerChnBase+0x4e8>
    4580:	48 89 d1             	mov    %rdx,%rcx
    4583:	48 8d 15 86 3e 00 00 	lea    0x3e86(%rip),%rdx        # 8410 <__func__.7>
    458a:	48 89 c6             	mov    %rax,%rsi
    458d:	bf 00 00 00 00       	mov    $0x0,%edi
    4592:	b8 00 00 00 00       	mov    $0x0,%eax
    4597:	e8 db 21 00 00       	call   6777 <log_message>
    459c:	48 83 c4 10          	add    $0x10,%rsp
                       count, stos_size, dest_addr);

                for (uint64_t j = 0; j < count; j++) {
    45a0:	48 c7 85 40 fd ff ff 	movq   $0x0,-0x2c0(%rbp)
    45a7:	00 00 00 00 
    45ab:	e9 a9 01 00 00       	jmp    4759 <segv_handler+0xb14>
                    uint32_t write_addr = (uint32_t)(dest_addr + j * stos_size);
    45b0:	48 8b 85 a8 fd ff ff 	mov    -0x258(%rbp),%rax
    45b7:	89 c1                	mov    %eax,%ecx
    45b9:	48 8b 85 40 fd ff ff 	mov    -0x2c0(%rbp),%rax
    45c0:	89 c2                	mov    %eax,%edx
    45c2:	8b 85 c4 fc ff ff    	mov    -0x33c(%rbp),%eax
    45c8:	48 98                	cltq   
    45ca:	0f af c2             	imul   %edx,%eax
    45cd:	01 c8                	add    %ecx,%eax
    45cf:	89 85 14 fd ff ff    	mov    %eax,-0x2ec(%rbp)
                    uint64_t write_val = value;
    45d5:	48 8b 85 b0 fd ff ff 	mov    -0x250(%rbp),%rax
    45dc:	48 89 85 20 fd ff ff 	mov    %rax,-0x2e0(%rbp)

                    /* Mask value according to size */
                    if (stos_size == 1) {
    45e3:	83 bd c4 fc ff ff 01 	cmpl   $0x1,-0x33c(%rbp)
    45ea:	75 13                	jne    45ff <segv_handler+0x9ba>
                        write_val &= 0xFF;
    45ec:	48 8b 85 20 fd ff ff 	mov    -0x2e0(%rbp),%rax
    45f3:	0f b6 c0             	movzbl %al,%eax
    45f6:	48 89 85 20 fd ff ff 	mov    %rax,-0x2e0(%rbp)
    45fd:	eb 2c                	jmp    462b <segv_handler+0x9e6>
                    } else if (stos_size == 2) {
    45ff:	83 bd c4 fc ff ff 02 	cmpl   $0x2,-0x33c(%rbp)
    4606:	75 13                	jne    461b <segv_handler+0x9d6>
                        write_val &= 0xFFFF;
    4608:	48 8b 85 20 fd ff ff 	mov    -0x2e0(%rbp),%rax
    460f:	0f b7 c0             	movzwl %ax,%eax
    4612:	48 89 85 20 fd ff ff 	mov    %rax,-0x2e0(%rbp)
    4619:	eb 10                	jmp    462b <segv_handler+0x9e6>
                    } else {
                        write_val &= 0xFFFFFFFF;
    461b:	48 8b 85 20 fd ff ff 	mov    -0x2e0(%rbp),%rax
    4622:	89 c0                	mov    %eax,%eax
    4624:	48 89 85 20 fd ff ff 	mov    %rax,-0x2e0(%rbp)
                    }

                    /* Send write command to device model */
                    protocol_message_t message = {0};
    462b:	48 8d 95 c0 fd ff ff 	lea    -0x240(%rbp),%rdx
    4632:	b8 00 00 00 00       	mov    $0x0,%eax
    4637:	b9 22 00 00 00       	mov    $0x22,%ecx
    463c:	48 89 d7             	mov    %rdx,%rdi
    463f:	f3 48 ab             	rep stos %rax,%es:(%rdi)
    4642:	48 89 fa             	mov    %rdi,%rdx
    4645:	89 02                	mov    %eax,(%rdx)
    4647:	48 83 c2 04          	add    $0x4,%rdx
                    message.device_id = devices[i].device_id;
    464b:	8b 85 d0 fc ff ff    	mov    -0x330(%rbp),%eax
    4651:	48 98                	cltq   
    4653:	48 c1 e0 05          	shl    $0x5,%rax
    4657:	48 89 c2             	mov    %rax,%rdx
    465a:	48 8d 05 7f 6a 00 00 	lea    0x6a7f(%rip),%rax        # b0e0 <devices>
    4661:	8b 04 02             	mov    (%rdx,%rax,1),%eax
    4664:	89 85 c0 fd ff ff    	mov    %eax,-0x240(%rbp)
                    message.command = CMD_WRITE;
    466a:	c7 85 c4 fd ff ff 02 	movl   $0x2,-0x23c(%rbp)
    4671:	00 00 00 
                    message.address = write_addr;
    4674:	8b 85 14 fd ff ff    	mov    -0x2ec(%rbp),%eax
    467a:	89 85 c8 fd ff ff    	mov    %eax,-0x238(%rbp)
                    message.length = stos_size;
    4680:	8b 85 c4 fc ff ff    	mov    -0x33c(%rbp),%eax
    4686:	89 85 cc fd ff ff    	mov    %eax,-0x234(%rbp)
                    memcpy(message.data, &write_val, stos_size);
    468c:	8b 85 c4 fc ff ff    	mov    -0x33c(%rbp),%eax
    4692:	48 63 d0             	movslq %eax,%rdx
    4695:	48 8d 85 20 fd ff ff 	lea    -0x2e0(%rbp),%rax
    469c:	48 8d 8d c0 fd ff ff 	lea    -0x240(%rbp),%rcx
    46a3:	48 83 c1 14          	add    $0x14,%rcx
    46a7:	48 89 c6             	mov    %rax,%rsi
    46aa:	48 89 cf             	mov    %rcx,%rdi
    46ad:	e8 6e dd ff ff       	call   2420 <memcpy@plt>

                    protocol_message_t response = {0};
    46b2:	48 8d 95 e0 fe ff ff 	lea    -0x120(%rbp),%rdx
    46b9:	b8 00 00 00 00       	mov    $0x0,%eax
    46be:	b9 22 00 00 00       	mov    $0x22,%ecx
    46c3:	48 89 d7             	mov    %rdx,%rdi
    46c6:	f3 48 ab             	rep stos %rax,%es:(%rdi)
    46c9:	48 89 fa             	mov    %rdi,%rdx
    46cc:	89 02                	mov    %eax,(%rdx)
    46ce:	48 83 c2 04          	add    $0x4,%rdx
                    if (send_message_to_model(&message, &response) != 0) {
    46d2:	48 8d 95 e0 fe ff ff 	lea    -0x120(%rbp),%rdx
    46d9:	48 8d 85 c0 fd ff ff 	lea    -0x240(%rbp),%rax
    46e0:	48 89 d6             	mov    %rdx,%rsi
    46e3:	48 89 c7             	mov    %rax,%rdi
    46e6:	e8 27 1b 00 00       	call   6212 <send_message_to_model>
    46eb:	85 c0                	test   %eax,%eax
    46ed:	74 2c                	je     471b <segv_handler+0xad6>
                        LOG_DEBUG("Failed to send write command for REP STOS operation\n");
    46ef:	48 8d 05 2e 2e 00 00 	lea    0x2e2e(%rip),%rax        # 7524 <s_timerChnBase+0x144>
    46f6:	48 8d 15 0b 32 00 00 	lea    0x320b(%rip),%rdx        # 7908 <s_timerChnBase+0x528>
    46fd:	48 89 d1             	mov    %rdx,%rcx
    4700:	48 8d 15 09 3d 00 00 	lea    0x3d09(%rip),%rdx        # 8410 <__func__.7>
    4707:	48 89 c6             	mov    %rax,%rsi
    470a:	bf 00 00 00 00       	mov    $0x0,%edi
    470f:	b8 00 00 00 00       	mov    $0x0,%eax
    4714:	e8 5e 20 00 00       	call   6777 <log_message>
                        break;
    4719:	eb 52                	jmp    476d <segv_handler+0xb28>
                    }

                    if (response.result != RESULT_SUCCESS) {
    471b:	8b 85 f0 fe ff ff    	mov    -0x110(%rbp),%eax
    4721:	85 c0                	test   %eax,%eax
    4723:	74 2c                	je     4751 <segv_handler+0xb0c>
                        LOG_DEBUG("Device model returned error for REP STOS write\n");
    4725:	48 8d 05 f8 2d 00 00 	lea    0x2df8(%rip),%rax        # 7524 <s_timerChnBase+0x144>
    472c:	48 8d 15 0d 32 00 00 	lea    0x320d(%rip),%rdx        # 7940 <s_timerChnBase+0x560>
    4733:	48 89 d1             	mov    %rdx,%rcx
    4736:	48 8d 15 d3 3c 00 00 	lea    0x3cd3(%rip),%rdx        # 8410 <__func__.7>
    473d:	48 89 c6             	mov    %rax,%rsi
    4740:	bf 00 00 00 00       	mov    $0x0,%edi
    4745:	b8 00 00 00 00       	mov    $0x0,%eax
    474a:	e8 28 20 00 00       	call   6777 <log_message>
                        break;
    474f:	eb 1c                	jmp    476d <segv_handler+0xb28>
                for (uint64_t j = 0; j < count; j++) {
    4751:	48 83 85 40 fd ff ff 	addq   $0x1,-0x2c0(%rbp)
    4758:	01 
    4759:	48 8b 85 40 fd ff ff 	mov    -0x2c0(%rbp),%rax
    4760:	48 3b 85 38 fd ff ff 	cmp    -0x2c8(%rbp),%rax
    4767:	0f 82 43 fe ff ff    	jb     45b0 <segv_handler+0x96b>
                    }
                }

                /* Update CPU registers to reflect completed REP STOS operation */
                uctx->uc_mcontext.gregs[REG_RCX] = 0; /* Count decrements to 0 */
    476d:	48 8b 85 58 fd ff ff 	mov    -0x2a8(%rbp),%rax
    4774:	48 c7 80 98 00 00 00 	movq   $0x0,0x98(%rax)
    477b:	00 00 00 00 
                uctx->uc_mcontext.gregs[REG_RDI] = dest_addr + (count * stos_size); /* Final destination */
    477f:	8b 85 c4 fc ff ff    	mov    -0x33c(%rbp),%eax
    4785:	48 98                	cltq   
    4787:	48 0f af 85 38 fd ff 	imul   -0x2c8(%rbp),%rax
    478e:	ff 
    478f:	48 89 c2             	mov    %rax,%rdx
    4792:	48 8b 85 a8 fd ff ff 	mov    -0x258(%rbp),%rax
    4799:	48 01 d0             	add    %rdx,%rax
    479c:	48 89 c2             	mov    %rax,%rdx
    479f:	48 8b 85 58 fd ff ff 	mov    -0x2a8(%rbp),%rax
    47a6:	48 89 50 68          	mov    %rdx,0x68(%rax)

                LOG_DEBUG("REP STOS completed: RCX=0, RDI=0x%lx\n",
    47aa:	48 8b 85 58 fd ff ff 	mov    -0x2a8(%rbp),%rax
    47b1:	48 8b 40 68          	mov    0x68(%rax),%rax
    47b5:	48 89 c2             	mov    %rax,%rdx
    47b8:	48 8d 05 65 2d 00 00 	lea    0x2d65(%rip),%rax        # 7524 <s_timerChnBase+0x144>
    47bf:	49 89 d0             	mov    %rdx,%r8
    47c2:	48 8d 15 a7 31 00 00 	lea    0x31a7(%rip),%rdx        # 7970 <s_timerChnBase+0x590>
    47c9:	48 89 d1             	mov    %rdx,%rcx
    47cc:	48 8d 15 3d 3c 00 00 	lea    0x3c3d(%rip),%rdx        # 8410 <__func__.7>
    47d3:	48 89 c6             	mov    %rax,%rsi
    47d6:	bf 00 00 00 00       	mov    $0x0,%edi
    47db:	b8 00 00 00 00       	mov    $0x0,%eax
    47e0:	e8 92 1f 00 00       	call   6777 <log_message>
                       (uint64_t)uctx->uc_mcontext.gregs[REG_RDI]);

                /* Skip the entire REP STOS instruction */
                uctx->uc_mcontext.gregs[REG_RIP] += inst_length;
    47e5:	48 8b 85 58 fd ff ff 	mov    -0x2a8(%rbp),%rax
    47ec:	48 8b 90 a8 00 00 00 	mov    0xa8(%rax),%rdx
    47f3:	8b 85 e8 fc ff ff    	mov    -0x318(%rbp),%eax
    47f9:	48 98                	cltq   
    47fb:	48 01 c2             	add    %rax,%rdx
    47fe:	48 8b 85 58 fd ff ff 	mov    -0x2a8(%rbp),%rax
    4805:	48 89 90 a8 00 00 00 	mov    %rdx,0xa8(%rax)
                LOG_DEBUG("Advanced RIP by %d bytes (from 0x%lx to 0x%lx)\n",
    480c:	8b 85 e8 fc ff ff    	mov    -0x318(%rbp),%eax
    4812:	48 63 d0             	movslq %eax,%rdx
    4815:	48 8b 85 60 fd ff ff 	mov    -0x2a0(%rbp),%rax
    481c:	48 01 c2             	add    %rax,%rdx
    481f:	48 8d 05 fe 2c 00 00 	lea    0x2cfe(%rip),%rax        # 7524 <s_timerChnBase+0x144>
    4826:	48 8b b5 60 fd ff ff 	mov    -0x2a0(%rbp),%rsi
    482d:	8b 8d e8 fc ff ff    	mov    -0x318(%rbp),%ecx
    4833:	48 83 ec 08          	sub    $0x8,%rsp
    4837:	52                   	push   %rdx
    4838:	49 89 f1             	mov    %rsi,%r9
    483b:	41 89 c8             	mov    %ecx,%r8d
    483e:	48 8d 15 53 31 00 00 	lea    0x3153(%rip),%rdx        # 7998 <s_timerChnBase+0x5b8>
    4845:	48 89 d1             	mov    %rdx,%rcx
    4848:	48 8d 15 c1 3b 00 00 	lea    0x3bc1(%rip),%rdx        # 8410 <__func__.7>
    484f:	48 89 c6             	mov    %rax,%rsi
    4852:	bf 00 00 00 00       	mov    $0x0,%edi
    4857:	b8 00 00 00 00       	mov    $0x0,%eax
    485c:	e8 16 1f 00 00       	call   6777 <log_message>
    4861:	48 83 c4 10          	add    $0x10,%rsp
                       inst_length, rip, rip + inst_length);

                return; /* REP STOS handling complete */
    4865:	e9 58 0e 00 00       	jmp    56c2 <segv_handler+0x1a7d>
        for (int i = 0; i < device_count; i++) {
    486a:	83 85 d0 fc ff ff 01 	addl   $0x1,-0x330(%rbp)
    4871:	8b 05 69 6a 00 00    	mov    0x6a69(%rip),%eax        # b2e0 <device_count>
    4877:	39 85 d0 fc ff ff    	cmp    %eax,-0x330(%rbp)
    487d:	0f 8c 70 fb ff ff    	jl     43f3 <segv_handler+0x7ae>
            }
        }

        /* If we get here, the address is not in any registered device */
        LOG_DEBUG("REP STOS targeting unmapped address 0x%lx\n", dest_addr);
    4883:	48 8d 05 9a 2c 00 00 	lea    0x2c9a(%rip),%rax        # 7524 <s_timerChnBase+0x144>
    488a:	48 8b 95 a8 fd ff ff 	mov    -0x258(%rbp),%rdx
    4891:	49 89 d0             	mov    %rdx,%r8
    4894:	48 8d 15 2d 31 00 00 	lea    0x312d(%rip),%rdx        # 79c8 <s_timerChnBase+0x5e8>
    489b:	48 89 d1             	mov    %rdx,%rcx
    489e:	48 8d 15 6b 3b 00 00 	lea    0x3b6b(%rip),%rdx        # 8410 <__func__.7>
    48a5:	48 89 c6             	mov    %rax,%rsi
    48a8:	bf 00 00 00 00       	mov    $0x0,%edi
    48ad:	b8 00 00 00 00       	mov    $0x0,%eax
    48b2:	e8 c0 1e 00 00       	call   6777 <log_message>
        exit(1);
    48b7:	bf 01 00 00 00       	mov    $0x1,%edi
    48bc:	e8 ff db ff ff       	call   24c0 <exit@plt>
    }

    /* Determine if it's a read or write instruction and access size */
    int is_write = 0;
    48c1:	c7 85 d4 fc ff ff 00 	movl   $0x0,-0x32c(%rbp)
    48c8:	00 00 00 
    uint32_t access_size = 4; /* Default to 4 bytes */
    48cb:	c7 85 d8 fc ff ff 04 	movl   $0x4,-0x328(%rbp)
    48d2:	00 00 00 
    uint64_t write_data = 0;
    48d5:	48 c7 85 18 fd ff ff 	movq   $0x0,-0x2e8(%rbp)
    48dc:	00 00 00 00 

    /* Enhanced x86-64 instruction parsing */
    uint8_t *inst_ptr = instruction;
    48e0:	48 8b 85 68 fd ff ff 	mov    -0x298(%rbp),%rax
    48e7:	48 89 85 48 fd ff ff 	mov    %rax,-0x2b8(%rbp)
    int has_66_prefix = 0;  /* Track 16-bit operand size prefix */
    48ee:	c7 85 dc fc ff ff 00 	movl   $0x0,-0x324(%rbp)
    48f5:	00 00 00 
    int is_two_byte_opcode = 0;  /* Track two-byte opcodes (0x0F prefix) */
    48f8:	c7 85 e0 fc ff ff 00 	movl   $0x0,-0x320(%rbp)
    48ff:	00 00 00 
    uint8_t first_opcode = 0;
    4902:	c6 85 bb fc ff ff 00 	movb   $0x0,-0x345(%rbp)
    uint8_t second_opcode = 0;
    4909:	c6 85 b9 fc ff ff 00 	movb   $0x0,-0x347(%rbp)

    /* Skip prefixes and find the actual opcode */
    while (*inst_ptr == 0xF0 || *inst_ptr == 0xF2 || *inst_ptr == 0xF3 ||
    4910:	eb 08                	jmp    491a <segv_handler+0xcd5>
           *inst_ptr == 0x2E || *inst_ptr == 0x36 || *inst_ptr == 0x3E ||
           *inst_ptr == 0x26 || *inst_ptr == 0x64 || *inst_ptr == 0x65 ||
           *inst_ptr == 0x67) {
        inst_ptr++;
    4912:	48 83 85 48 fd ff ff 	addq   $0x1,-0x2b8(%rbp)
    4919:	01 
    while (*inst_ptr == 0xF0 || *inst_ptr == 0xF2 || *inst_ptr == 0xF3 ||
    491a:	48 8b 85 48 fd ff ff 	mov    -0x2b8(%rbp),%rax
    4921:	0f b6 00             	movzbl (%rax),%eax
           *inst_ptr == 0x26 || *inst_ptr == 0x64 || *inst_ptr == 0x65 ||
    4924:	3c f0                	cmp    $0xf0,%al
    4926:	74 ea                	je     4912 <segv_handler+0xccd>
    while (*inst_ptr == 0xF0 || *inst_ptr == 0xF2 || *inst_ptr == 0xF3 ||
    4928:	48 8b 85 48 fd ff ff 	mov    -0x2b8(%rbp),%rax
    492f:	0f b6 00             	movzbl (%rax),%eax
    4932:	3c f2                	cmp    $0xf2,%al
    4934:	74 dc                	je     4912 <segv_handler+0xccd>
    4936:	48 8b 85 48 fd ff ff 	mov    -0x2b8(%rbp),%rax
    493d:	0f b6 00             	movzbl (%rax),%eax
    4940:	3c f3                	cmp    $0xf3,%al
    4942:	74 ce                	je     4912 <segv_handler+0xccd>
           *inst_ptr == 0x2E || *inst_ptr == 0x36 || *inst_ptr == 0x3E ||
    4944:	48 8b 85 48 fd ff ff 	mov    -0x2b8(%rbp),%rax
    494b:	0f b6 00             	movzbl (%rax),%eax
    while (*inst_ptr == 0xF0 || *inst_ptr == 0xF2 || *inst_ptr == 0xF3 ||
    494e:	3c 2e                	cmp    $0x2e,%al
    4950:	74 c0                	je     4912 <segv_handler+0xccd>
           *inst_ptr == 0x2E || *inst_ptr == 0x36 || *inst_ptr == 0x3E ||
    4952:	48 8b 85 48 fd ff ff 	mov    -0x2b8(%rbp),%rax
    4959:	0f b6 00             	movzbl (%rax),%eax
    495c:	3c 36                	cmp    $0x36,%al
    495e:	74 b2                	je     4912 <segv_handler+0xccd>
    4960:	48 8b 85 48 fd ff ff 	mov    -0x2b8(%rbp),%rax
    4967:	0f b6 00             	movzbl (%rax),%eax
    496a:	3c 3e                	cmp    $0x3e,%al
    496c:	74 a4                	je     4912 <segv_handler+0xccd>
           *inst_ptr == 0x26 || *inst_ptr == 0x64 || *inst_ptr == 0x65 ||
    496e:	48 8b 85 48 fd ff ff 	mov    -0x2b8(%rbp),%rax
    4975:	0f b6 00             	movzbl (%rax),%eax
           *inst_ptr == 0x2E || *inst_ptr == 0x36 || *inst_ptr == 0x3E ||
    4978:	3c 26                	cmp    $0x26,%al
    497a:	74 96                	je     4912 <segv_handler+0xccd>
           *inst_ptr == 0x26 || *inst_ptr == 0x64 || *inst_ptr == 0x65 ||
    497c:	48 8b 85 48 fd ff ff 	mov    -0x2b8(%rbp),%rax
    4983:	0f b6 00             	movzbl (%rax),%eax
    4986:	3c 64                	cmp    $0x64,%al
    4988:	74 88                	je     4912 <segv_handler+0xccd>
    498a:	48 8b 85 48 fd ff ff 	mov    -0x2b8(%rbp),%rax
    4991:	0f b6 00             	movzbl (%rax),%eax
    4994:	3c 65                	cmp    $0x65,%al
    4996:	0f 84 76 ff ff ff    	je     4912 <segv_handler+0xccd>
           *inst_ptr == 0x67) {
    499c:	48 8b 85 48 fd ff ff 	mov    -0x2b8(%rbp),%rax
    49a3:	0f b6 00             	movzbl (%rax),%eax
           *inst_ptr == 0x26 || *inst_ptr == 0x64 || *inst_ptr == 0x65 ||
    49a6:	3c 67                	cmp    $0x67,%al
    49a8:	0f 84 64 ff ff ff    	je     4912 <segv_handler+0xccd>
    }

    /* Check for 16-bit operand size prefix */
    if (*inst_ptr == 0x66) {
    49ae:	48 8b 85 48 fd ff ff 	mov    -0x2b8(%rbp),%rax
    49b5:	0f b6 00             	movzbl (%rax),%eax
    49b8:	3c 66                	cmp    $0x66,%al
    49ba:	75 12                	jne    49ce <segv_handler+0xd89>
        has_66_prefix = 1;
    49bc:	c7 85 dc fc ff ff 01 	movl   $0x1,-0x324(%rbp)
    49c3:	00 00 00 
        inst_ptr++;
    49c6:	48 83 85 48 fd ff ff 	addq   $0x1,-0x2b8(%rbp)
    49cd:	01 
    }

    /* Skip REX prefix if present (0x40-0x4F) */
    if (*inst_ptr >= 0x40 && *inst_ptr <= 0x4F) {
    49ce:	48 8b 85 48 fd ff ff 	mov    -0x2b8(%rbp),%rax
    49d5:	0f b6 00             	movzbl (%rax),%eax
    49d8:	3c 3f                	cmp    $0x3f,%al
    49da:	76 16                	jbe    49f2 <segv_handler+0xdad>
    49dc:	48 8b 85 48 fd ff ff 	mov    -0x2b8(%rbp),%rax
    49e3:	0f b6 00             	movzbl (%rax),%eax
    49e6:	3c 4f                	cmp    $0x4f,%al
    49e8:	77 08                	ja     49f2 <segv_handler+0xdad>
        inst_ptr++;
    49ea:	48 83 85 48 fd ff ff 	addq   $0x1,-0x2b8(%rbp)
    49f1:	01 
    }

    /* Get the opcode(s) */
    first_opcode = *inst_ptr++;
    49f2:	48 8b 85 48 fd ff ff 	mov    -0x2b8(%rbp),%rax
    49f9:	48 8d 50 01          	lea    0x1(%rax),%rdx
    49fd:	48 89 95 48 fd ff ff 	mov    %rdx,-0x2b8(%rbp)
    4a04:	0f b6 00             	movzbl (%rax),%eax
    4a07:	88 85 bb fc ff ff    	mov    %al,-0x345(%rbp)
    if (first_opcode == 0x0F) {
    4a0d:	80 bd bb fc ff ff 0f 	cmpb   $0xf,-0x345(%rbp)
    4a14:	75 1a                	jne    4a30 <segv_handler+0xdeb>
        is_two_byte_opcode = 1;
    4a16:	c7 85 e0 fc ff ff 01 	movl   $0x1,-0x320(%rbp)
    4a1d:	00 00 00 
        second_opcode = *inst_ptr;
    4a20:	48 8b 85 48 fd ff ff 	mov    -0x2b8(%rbp),%rax
    4a27:	0f b6 00             	movzbl (%rax),%eax
    4a2a:	88 85 b9 fc ff ff    	mov    %al,-0x347(%rbp)
    }

    /* Parse instruction opcode and determine size/operation */
    if (is_two_byte_opcode) {
    4a30:	83 bd e0 fc ff ff 00 	cmpl   $0x0,-0x320(%rbp)
    4a37:	0f 84 d1 01 00 00    	je     4c0e <segv_handler+0xfc9>
        /* Handle two-byte opcodes (0x0F prefix) */
        switch (second_opcode) {
    4a3d:	0f b6 85 b9 fc ff ff 	movzbl -0x347(%rbp),%eax
    4a44:	3d bf 00 00 00       	cmp    $0xbf,%eax
    4a49:	0f 84 1b 01 00 00    	je     4b6a <segv_handler+0xf25>
    4a4f:	3d bf 00 00 00       	cmp    $0xbf,%eax
    4a54:	0f 8f 5d 01 00 00    	jg     4bb7 <segv_handler+0xf72>
    4a5a:	3d be 00 00 00       	cmp    $0xbe,%eax
    4a5f:	0f 84 b8 00 00 00    	je     4b1d <segv_handler+0xed8>
    4a65:	3d be 00 00 00       	cmp    $0xbe,%eax
    4a6a:	0f 8f 47 01 00 00    	jg     4bb7 <segv_handler+0xf72>
    4a70:	3d b6 00 00 00       	cmp    $0xb6,%eax
    4a75:	74 0c                	je     4a83 <segv_handler+0xe3e>
    4a77:	3d b7 00 00 00       	cmp    $0xb7,%eax
    4a7c:	74 52                	je     4ad0 <segv_handler+0xe8b>
    4a7e:	e9 34 01 00 00       	jmp    4bb7 <segv_handler+0xf72>
            case 0xB6: /* movzbl [mem], r32 - zero-extend 8-bit read */
                is_write = 0;
    4a83:	c7 85 d4 fc ff ff 00 	movl   $0x0,-0x32c(%rbp)
    4a8a:	00 00 00 
                access_size = 1;
    4a8d:	c7 85 d8 fc ff ff 01 	movl   $0x1,-0x328(%rbp)
    4a94:	00 00 00 
                LOG_DEBUG("Detected MOVZBL (0x0F 0xB6) 8-bit zero-extend READ instruction at RIP 0x%lx\n", rip);
    4a97:	48 8d 05 86 2a 00 00 	lea    0x2a86(%rip),%rax        # 7524 <s_timerChnBase+0x144>
    4a9e:	48 8b 95 60 fd ff ff 	mov    -0x2a0(%rbp),%rdx
    4aa5:	49 89 d0             	mov    %rdx,%r8
    4aa8:	48 8d 15 49 2f 00 00 	lea    0x2f49(%rip),%rdx        # 79f8 <s_timerChnBase+0x618>
    4aaf:	48 89 d1             	mov    %rdx,%rcx
    4ab2:	48 8d 15 57 39 00 00 	lea    0x3957(%rip),%rdx        # 8410 <__func__.7>
    4ab9:	48 89 c6             	mov    %rax,%rsi
    4abc:	bf 00 00 00 00       	mov    $0x0,%edi
    4ac1:	b8 00 00 00 00       	mov    $0x0,%eax
    4ac6:	e8 ac 1c 00 00       	call   6777 <log_message>
                break;
    4acb:	e9 1f 06 00 00       	jmp    50ef <segv_handler+0x14aa>
            case 0xB7: /* movzwl [mem], r32 - zero-extend 16-bit read */
                is_write = 0;
    4ad0:	c7 85 d4 fc ff ff 00 	movl   $0x0,-0x32c(%rbp)
    4ad7:	00 00 00 
                access_size = 2;
    4ada:	c7 85 d8 fc ff ff 02 	movl   $0x2,-0x328(%rbp)
    4ae1:	00 00 00 
                LOG_DEBUG("Detected MOVZWL (0x0F 0xB7) 16-bit zero-extend READ instruction at RIP 0x%lx\n", rip);
    4ae4:	48 8d 05 39 2a 00 00 	lea    0x2a39(%rip),%rax        # 7524 <s_timerChnBase+0x144>
    4aeb:	48 8b 95 60 fd ff ff 	mov    -0x2a0(%rbp),%rdx
    4af2:	49 89 d0             	mov    %rdx,%r8
    4af5:	48 8d 15 4c 2f 00 00 	lea    0x2f4c(%rip),%rdx        # 7a48 <s_timerChnBase+0x668>
    4afc:	48 89 d1             	mov    %rdx,%rcx
    4aff:	48 8d 15 0a 39 00 00 	lea    0x390a(%rip),%rdx        # 8410 <__func__.7>
    4b06:	48 89 c6             	mov    %rax,%rsi
    4b09:	bf 00 00 00 00       	mov    $0x0,%edi
    4b0e:	b8 00 00 00 00       	mov    $0x0,%eax
    4b13:	e8 5f 1c 00 00       	call   6777 <log_message>
                break;
    4b18:	e9 d2 05 00 00       	jmp    50ef <segv_handler+0x14aa>
            case 0xBE: /* movsbl [mem], r32 - sign-extend 8-bit read */
                is_write = 0;
    4b1d:	c7 85 d4 fc ff ff 00 	movl   $0x0,-0x32c(%rbp)
    4b24:	00 00 00 
                access_size = 1;
    4b27:	c7 85 d8 fc ff ff 01 	movl   $0x1,-0x328(%rbp)
    4b2e:	00 00 00 
                LOG_DEBUG("Detected MOVSBL (0x0F 0xBE) 8-bit sign-extend READ instruction at RIP 0x%lx\n", rip);
    4b31:	48 8d 05 ec 29 00 00 	lea    0x29ec(%rip),%rax        # 7524 <s_timerChnBase+0x144>
    4b38:	48 8b 95 60 fd ff ff 	mov    -0x2a0(%rbp),%rdx
    4b3f:	49 89 d0             	mov    %rdx,%r8
    4b42:	48 8d 15 4f 2f 00 00 	lea    0x2f4f(%rip),%rdx        # 7a98 <s_timerChnBase+0x6b8>
    4b49:	48 89 d1             	mov    %rdx,%rcx
    4b4c:	48 8d 15 bd 38 00 00 	lea    0x38bd(%rip),%rdx        # 8410 <__func__.7>
    4b53:	48 89 c6             	mov    %rax,%rsi
    4b56:	bf 00 00 00 00       	mov    $0x0,%edi
    4b5b:	b8 00 00 00 00       	mov    $0x0,%eax
    4b60:	e8 12 1c 00 00       	call   6777 <log_message>
                break;
    4b65:	e9 85 05 00 00       	jmp    50ef <segv_handler+0x14aa>
            case 0xBF: /* movswl [mem], r32 - sign-extend 16-bit read */
                is_write = 0;
    4b6a:	c7 85 d4 fc ff ff 00 	movl   $0x0,-0x32c(%rbp)
    4b71:	00 00 00 
                access_size = 2;
    4b74:	c7 85 d8 fc ff ff 02 	movl   $0x2,-0x328(%rbp)
    4b7b:	00 00 00 
                LOG_DEBUG("Detected MOVSWL (0x0F 0xBF) 16-bit sign-extend READ instruction at RIP 0x%lx\n", rip);
    4b7e:	48 8d 05 9f 29 00 00 	lea    0x299f(%rip),%rax        # 7524 <s_timerChnBase+0x144>
    4b85:	48 8b 95 60 fd ff ff 	mov    -0x2a0(%rbp),%rdx
    4b8c:	49 89 d0             	mov    %rdx,%r8
    4b8f:	48 8d 15 52 2f 00 00 	lea    0x2f52(%rip),%rdx        # 7ae8 <s_timerChnBase+0x708>
    4b96:	48 89 d1             	mov    %rdx,%rcx
    4b99:	48 8d 15 70 38 00 00 	lea    0x3870(%rip),%rdx        # 8410 <__func__.7>
    4ba0:	48 89 c6             	mov    %rax,%rsi
    4ba3:	bf 00 00 00 00       	mov    $0x0,%edi
    4ba8:	b8 00 00 00 00       	mov    $0x0,%eax
    4bad:	e8 c5 1b 00 00       	call   6777 <log_message>
                break;
    4bb2:	e9 38 05 00 00       	jmp    50ef <segv_handler+0x14aa>
            default:
                /* Unknown two-byte instruction - treat as 32-bit read for safety */
                is_write = 0;
    4bb7:	c7 85 d4 fc ff ff 00 	movl   $0x0,-0x32c(%rbp)
    4bbe:	00 00 00 
                access_size = 4;
    4bc1:	c7 85 d8 fc ff ff 04 	movl   $0x4,-0x328(%rbp)
    4bc8:	00 00 00 
                LOG_DEBUG("Unknown two-byte instruction 0x0F 0x%02X at RIP 0x%lx, treating as 32-bit READ\n", second_opcode, rip);
    4bcb:	0f b6 95 b9 fc ff ff 	movzbl -0x347(%rbp),%edx
    4bd2:	48 8d 05 4b 29 00 00 	lea    0x294b(%rip),%rax        # 7524 <s_timerChnBase+0x144>
    4bd9:	48 8b 8d 60 fd ff ff 	mov    -0x2a0(%rbp),%rcx
    4be0:	49 89 c9             	mov    %rcx,%r9
    4be3:	41 89 d0             	mov    %edx,%r8d
    4be6:	48 8d 15 4b 2f 00 00 	lea    0x2f4b(%rip),%rdx        # 7b38 <s_timerChnBase+0x758>
    4bed:	48 89 d1             	mov    %rdx,%rcx
    4bf0:	48 8d 15 19 38 00 00 	lea    0x3819(%rip),%rdx        # 8410 <__func__.7>
    4bf7:	48 89 c6             	mov    %rax,%rsi
    4bfa:	bf 00 00 00 00       	mov    $0x0,%edi
    4bff:	b8 00 00 00 00       	mov    $0x0,%eax
    4c04:	e8 6e 1b 00 00       	call   6777 <log_message>
                break;
    4c09:	e9 e1 04 00 00       	jmp    50ef <segv_handler+0x14aa>
        }
    } else {
        /* Handle single-byte opcodes */
        switch (first_opcode) {
    4c0e:	0f b6 85 bb fc ff ff 	movzbl -0x345(%rbp),%eax
    4c15:	3d c7 00 00 00       	cmp    $0xc7,%eax
    4c1a:	0f 84 a3 03 00 00    	je     4fc3 <segv_handler+0x137e>
    4c20:	3d c7 00 00 00       	cmp    $0xc7,%eax
    4c25:	0f 8f 71 04 00 00    	jg     509c <segv_handler+0x1457>
    4c2b:	3d c6 00 00 00       	cmp    $0xc6,%eax
    4c30:	0f 84 0f 03 00 00    	je     4f45 <segv_handler+0x1300>
    4c36:	3d c6 00 00 00       	cmp    $0xc6,%eax
    4c3b:	0f 8f 5b 04 00 00    	jg     509c <segv_handler+0x1457>
    4c41:	3d 8b 00 00 00       	cmp    $0x8b,%eax
    4c46:	0f 84 85 00 00 00    	je     4cd1 <segv_handler+0x108c>
    4c4c:	3d 8b 00 00 00       	cmp    $0x8b,%eax
    4c51:	0f 8f 45 04 00 00    	jg     509c <segv_handler+0x1457>
    4c57:	3d 8a 00 00 00       	cmp    $0x8a,%eax
    4c5c:	74 26                	je     4c84 <segv_handler+0x103f>
    4c5e:	3d 8a 00 00 00       	cmp    $0x8a,%eax
    4c63:	0f 8f 33 04 00 00    	jg     509c <segv_handler+0x1457>
    4c69:	3d 88 00 00 00       	cmp    $0x88,%eax
    4c6e:	0f 84 cb 00 00 00    	je     4d3f <segv_handler+0x10fa>
    4c74:	3d 89 00 00 00       	cmp    $0x89,%eax
    4c79:	0f 84 91 01 00 00    	je     4e10 <segv_handler+0x11cb>
    4c7f:	e9 18 04 00 00       	jmp    509c <segv_handler+0x1457>
            case 0x8A: /* mov r8, [mem] - 8-bit read */
                is_write = 0;
    4c84:	c7 85 d4 fc ff ff 00 	movl   $0x0,-0x32c(%rbp)
    4c8b:	00 00 00 
                access_size = 1;
    4c8e:	c7 85 d8 fc ff ff 01 	movl   $0x1,-0x328(%rbp)
    4c95:	00 00 00 
                LOG_DEBUG("Detected 8-bit READ instruction (0x8A) at RIP 0x%lx\n", rip);
    4c98:	48 8d 05 85 28 00 00 	lea    0x2885(%rip),%rax        # 7524 <s_timerChnBase+0x144>
    4c9f:	48 8b 95 60 fd ff ff 	mov    -0x2a0(%rbp),%rdx
    4ca6:	49 89 d0             	mov    %rdx,%r8
    4ca9:	48 8d 15 d8 2e 00 00 	lea    0x2ed8(%rip),%rdx        # 7b88 <s_timerChnBase+0x7a8>
    4cb0:	48 89 d1             	mov    %rdx,%rcx
    4cb3:	48 8d 15 56 37 00 00 	lea    0x3756(%rip),%rdx        # 8410 <__func__.7>
    4cba:	48 89 c6             	mov    %rax,%rsi
    4cbd:	bf 00 00 00 00       	mov    $0x0,%edi
    4cc2:	b8 00 00 00 00       	mov    $0x0,%eax
    4cc7:	e8 ab 1a 00 00       	call   6777 <log_message>
                break;
    4ccc:	e9 1e 04 00 00       	jmp    50ef <segv_handler+0x14aa>
            case 0x8B: /* mov r32/r16, [mem] - 32/16-bit read */
                is_write = 0;
    4cd1:	c7 85 d4 fc ff ff 00 	movl   $0x0,-0x32c(%rbp)
    4cd8:	00 00 00 
                access_size = has_66_prefix ? 2 : 4;
    4cdb:	83 bd dc fc ff ff 00 	cmpl   $0x0,-0x324(%rbp)
    4ce2:	74 07                	je     4ceb <segv_handler+0x10a6>
    4ce4:	b8 02 00 00 00       	mov    $0x2,%eax
    4ce9:	eb 05                	jmp    4cf0 <segv_handler+0x10ab>
    4ceb:	b8 04 00 00 00       	mov    $0x4,%eax
    4cf0:	89 85 d8 fc ff ff    	mov    %eax,-0x328(%rbp)
                LOG_DEBUG("Detected %d-bit READ instruction (0x8B) at RIP 0x%lx\n", access_size * 8, rip);
    4cf6:	8b 85 d8 fc ff ff    	mov    -0x328(%rbp),%eax
    4cfc:	8d 0c c5 00 00 00 00 	lea    0x0(,%rax,8),%ecx
    4d03:	48 8d 05 1a 28 00 00 	lea    0x281a(%rip),%rax        # 7524 <s_timerChnBase+0x144>
    4d0a:	48 8b 95 60 fd ff ff 	mov    -0x2a0(%rbp),%rdx
    4d11:	49 89 d1             	mov    %rdx,%r9
    4d14:	41 89 c8             	mov    %ecx,%r8d
    4d17:	48 8d 15 a2 2e 00 00 	lea    0x2ea2(%rip),%rdx        # 7bc0 <s_timerChnBase+0x7e0>
    4d1e:	48 89 d1             	mov    %rdx,%rcx
    4d21:	48 8d 15 e8 36 00 00 	lea    0x36e8(%rip),%rdx        # 8410 <__func__.7>
    4d28:	48 89 c6             	mov    %rax,%rsi
    4d2b:	bf 00 00 00 00       	mov    $0x0,%edi
    4d30:	b8 00 00 00 00       	mov    $0x0,%eax
    4d35:	e8 3d 1a 00 00       	call   6777 <log_message>
                break;
    4d3a:	e9 b0 03 00 00       	jmp    50ef <segv_handler+0x14aa>
            case 0x88: /* mov [mem], r8 - 8-bit write */
                is_write = 1;
    4d3f:	c7 85 d4 fc ff ff 01 	movl   $0x1,-0x32c(%rbp)
    4d46:	00 00 00 
                access_size = 1;
    4d49:	c7 85 d8 fc ff ff 01 	movl   $0x1,-0x328(%rbp)
    4d50:	00 00 00 
                LOG_DEBUG("Detected 8-bit WRITE instruction (0x88) at RIP 0x%lx\n", rip);
    4d53:	48 8d 05 ca 27 00 00 	lea    0x27ca(%rip),%rax        # 7524 <s_timerChnBase+0x144>
    4d5a:	48 8b 95 60 fd ff ff 	mov    -0x2a0(%rbp),%rdx
    4d61:	49 89 d0             	mov    %rdx,%r8
    4d64:	48 8d 15 8d 2e 00 00 	lea    0x2e8d(%rip),%rdx        # 7bf8 <s_timerChnBase+0x818>
    4d6b:	48 89 d1             	mov    %rdx,%rcx
    4d6e:	48 8d 15 9b 36 00 00 	lea    0x369b(%rip),%rdx        # 8410 <__func__.7>
    4d75:	48 89 c6             	mov    %rax,%rsi
    4d78:	bf 00 00 00 00       	mov    $0x0,%edi
    4d7d:	b8 00 00 00 00       	mov    $0x0,%eax
    4d82:	e8 f0 19 00 00       	call   6777 <log_message>
                /* Extract 8-bit data from the correct source register using ModR/M byte */
                {
                    int src_reg = get_source_register_from_modrm(instruction, is_two_byte_opcode, first_opcode);
    4d87:	0f b6 95 bb fc ff ff 	movzbl -0x345(%rbp),%edx
    4d8e:	8b 8d e0 fc ff ff    	mov    -0x320(%rbp),%ecx
    4d94:	48 8b 85 68 fd ff ff 	mov    -0x298(%rbp),%rax
    4d9b:	89 ce                	mov    %ecx,%esi
    4d9d:	48 89 c7             	mov    %rax,%rdi
    4da0:	e8 76 eb ff ff       	call   391b <get_source_register_from_modrm>
    4da5:	89 85 fc fc ff ff    	mov    %eax,-0x304(%rbp)
                    write_data = uctx->uc_mcontext.gregs[src_reg] & 0xFF;
    4dab:	48 8b 85 58 fd ff ff 	mov    -0x2a8(%rbp),%rax
    4db2:	8b 95 fc fc ff ff    	mov    -0x304(%rbp),%edx
    4db8:	48 63 d2             	movslq %edx,%rdx
    4dbb:	48 83 c2 04          	add    $0x4,%rdx
    4dbf:	48 8b 44 d0 08       	mov    0x8(%rax,%rdx,8),%rax
    4dc4:	0f b6 c0             	movzbl %al,%eax
    4dc7:	48 89 85 18 fd ff ff 	mov    %rax,-0x2e8(%rbp)
                    LOG_DEBUG("Using source register %d, extracted 8-bit value: 0x%lx\n", src_reg, write_data);
    4dce:	48 8b 8d 18 fd ff ff 	mov    -0x2e8(%rbp),%rcx
    4dd5:	48 8d 05 48 27 00 00 	lea    0x2748(%rip),%rax        # 7524 <s_timerChnBase+0x144>
    4ddc:	8b 95 fc fc ff ff    	mov    -0x304(%rbp),%edx
    4de2:	49 89 c9             	mov    %rcx,%r9
    4de5:	41 89 d0             	mov    %edx,%r8d
    4de8:	48 8d 15 41 2e 00 00 	lea    0x2e41(%rip),%rdx        # 7c30 <s_timerChnBase+0x850>
    4def:	48 89 d1             	mov    %rdx,%rcx
    4df2:	48 8d 15 17 36 00 00 	lea    0x3617(%rip),%rdx        # 8410 <__func__.7>
    4df9:	48 89 c6             	mov    %rax,%rsi
    4dfc:	bf 00 00 00 00       	mov    $0x0,%edi
    4e01:	b8 00 00 00 00       	mov    $0x0,%eax
    4e06:	e8 6c 19 00 00       	call   6777 <log_message>
                }
                break;
    4e0b:	e9 df 02 00 00       	jmp    50ef <segv_handler+0x14aa>
            case 0x89: /* mov [mem], r32/r16 - 32/16-bit write */
                is_write = 1;
    4e10:	c7 85 d4 fc ff ff 01 	movl   $0x1,-0x32c(%rbp)
    4e17:	00 00 00 
                access_size = has_66_prefix ? 2 : 4;
    4e1a:	83 bd dc fc ff ff 00 	cmpl   $0x0,-0x324(%rbp)
    4e21:	74 07                	je     4e2a <segv_handler+0x11e5>
    4e23:	b8 02 00 00 00       	mov    $0x2,%eax
    4e28:	eb 05                	jmp    4e2f <segv_handler+0x11ea>
    4e2a:	b8 04 00 00 00       	mov    $0x4,%eax
    4e2f:	89 85 d8 fc ff ff    	mov    %eax,-0x328(%rbp)
                LOG_DEBUG("Detected %d-bit WRITE instruction (0x89) at RIP 0x%lx\n", access_size * 8, rip);
    4e35:	8b 85 d8 fc ff ff    	mov    -0x328(%rbp),%eax
    4e3b:	8d 0c c5 00 00 00 00 	lea    0x0(,%rax,8),%ecx
    4e42:	48 8d 05 db 26 00 00 	lea    0x26db(%rip),%rax        # 7524 <s_timerChnBase+0x144>
    4e49:	48 8b 95 60 fd ff ff 	mov    -0x2a0(%rbp),%rdx
    4e50:	49 89 d1             	mov    %rdx,%r9
    4e53:	41 89 c8             	mov    %ecx,%r8d
    4e56:	48 8d 15 0b 2e 00 00 	lea    0x2e0b(%rip),%rdx        # 7c68 <s_timerChnBase+0x888>
    4e5d:	48 89 d1             	mov    %rdx,%rcx
    4e60:	48 8d 15 a9 35 00 00 	lea    0x35a9(%rip),%rdx        # 8410 <__func__.7>
    4e67:	48 89 c6             	mov    %rax,%rsi
    4e6a:	bf 00 00 00 00       	mov    $0x0,%edi
    4e6f:	b8 00 00 00 00       	mov    $0x0,%eax
    4e74:	e8 fe 18 00 00       	call   6777 <log_message>
                /* Extract data from the correct source register using ModR/M byte */
                {
                    int src_reg = get_source_register_from_modrm(instruction, is_two_byte_opcode, first_opcode);
    4e79:	0f b6 95 bb fc ff ff 	movzbl -0x345(%rbp),%edx
    4e80:	8b 8d e0 fc ff ff    	mov    -0x320(%rbp),%ecx
    4e86:	48 8b 85 68 fd ff ff 	mov    -0x298(%rbp),%rax
    4e8d:	89 ce                	mov    %ecx,%esi
    4e8f:	48 89 c7             	mov    %rax,%rdi
    4e92:	e8 84 ea ff ff       	call   391b <get_source_register_from_modrm>
    4e97:	89 85 f8 fc ff ff    	mov    %eax,-0x308(%rbp)
                    if (has_66_prefix) {
    4e9d:	83 bd dc fc ff ff 00 	cmpl   $0x0,-0x324(%rbp)
    4ea4:	74 25                	je     4ecb <segv_handler+0x1286>
                        write_data = uctx->uc_mcontext.gregs[src_reg] & 0xFFFF; /* 16-bit */
    4ea6:	48 8b 85 58 fd ff ff 	mov    -0x2a8(%rbp),%rax
    4ead:	8b 95 f8 fc ff ff    	mov    -0x308(%rbp),%edx
    4eb3:	48 63 d2             	movslq %edx,%rdx
    4eb6:	48 83 c2 04          	add    $0x4,%rdx
    4eba:	48 8b 44 d0 08       	mov    0x8(%rax,%rdx,8),%rax
    4ebf:	0f b7 c0             	movzwl %ax,%eax
    4ec2:	48 89 85 18 fd ff ff 	mov    %rax,-0x2e8(%rbp)
    4ec9:	eb 22                	jmp    4eed <segv_handler+0x12a8>
                    } else {
                        write_data = uctx->uc_mcontext.gregs[src_reg] & 0xFFFFFFFF; /* 32-bit */
    4ecb:	48 8b 85 58 fd ff ff 	mov    -0x2a8(%rbp),%rax
    4ed2:	8b 95 f8 fc ff ff    	mov    -0x308(%rbp),%edx
    4ed8:	48 63 d2             	movslq %edx,%rdx
    4edb:	48 83 c2 04          	add    $0x4,%rdx
    4edf:	48 8b 44 d0 08       	mov    0x8(%rax,%rdx,8),%rax
    4ee4:	89 c0                	mov    %eax,%eax
    4ee6:	48 89 85 18 fd ff ff 	mov    %rax,-0x2e8(%rbp)
                    }
                    LOG_DEBUG("Using source register %d, extracted %d-bit value: 0x%lx\n", src_reg, access_size * 8, write_data);
    4eed:	48 8b 95 18 fd ff ff 	mov    -0x2e8(%rbp),%rdx
    4ef4:	8b 85 d8 fc ff ff    	mov    -0x328(%rbp),%eax
    4efa:	8d 34 c5 00 00 00 00 	lea    0x0(,%rax,8),%esi
    4f01:	48 8d 05 1c 26 00 00 	lea    0x261c(%rip),%rax        # 7524 <s_timerChnBase+0x144>
    4f08:	8b 8d f8 fc ff ff    	mov    -0x308(%rbp),%ecx
    4f0e:	48 83 ec 08          	sub    $0x8,%rsp
    4f12:	52                   	push   %rdx
    4f13:	41 89 f1             	mov    %esi,%r9d
    4f16:	41 89 c8             	mov    %ecx,%r8d
    4f19:	48 8d 15 80 2d 00 00 	lea    0x2d80(%rip),%rdx        # 7ca0 <s_timerChnBase+0x8c0>
    4f20:	48 89 d1             	mov    %rdx,%rcx
    4f23:	48 8d 15 e6 34 00 00 	lea    0x34e6(%rip),%rdx        # 8410 <__func__.7>
    4f2a:	48 89 c6             	mov    %rax,%rsi
    4f2d:	bf 00 00 00 00       	mov    $0x0,%edi
    4f32:	b8 00 00 00 00       	mov    $0x0,%eax
    4f37:	e8 3b 18 00 00       	call   6777 <log_message>
    4f3c:	48 83 c4 10          	add    $0x10,%rsp
                }
                break;
    4f40:	e9 aa 01 00 00       	jmp    50ef <segv_handler+0x14aa>
            case 0xC6: /* mov [mem], imm8 - 8-bit immediate write */
                is_write = 1;
    4f45:	c7 85 d4 fc ff ff 01 	movl   $0x1,-0x32c(%rbp)
    4f4c:	00 00 00 
                access_size = 1;
    4f4f:	c7 85 d8 fc ff ff 01 	movl   $0x1,-0x328(%rbp)
    4f56:	00 00 00 
                LOG_DEBUG("Detected 8-bit immediate WRITE instruction (0xC6) at RIP 0x%lx\n", rip);
    4f59:	48 8d 05 c4 25 00 00 	lea    0x25c4(%rip),%rax        # 7524 <s_timerChnBase+0x144>
    4f60:	48 8b 95 60 fd ff ff 	mov    -0x2a0(%rbp),%rdx
    4f67:	49 89 d0             	mov    %rdx,%r8
    4f6a:	48 8d 15 6f 2d 00 00 	lea    0x2d6f(%rip),%rdx        # 7ce0 <s_timerChnBase+0x900>
    4f71:	48 89 d1             	mov    %rdx,%rcx
    4f74:	48 8d 15 95 34 00 00 	lea    0x3495(%rip),%rdx        # 8410 <__func__.7>
    4f7b:	48 89 c6             	mov    %rax,%rsi
    4f7e:	bf 00 00 00 00       	mov    $0x0,%edi
    4f83:	b8 00 00 00 00       	mov    $0x0,%eax
    4f88:	e8 ea 17 00 00       	call   6777 <log_message>
                /* Extract immediate value from instruction stream */
                uint8_t *imm_ptr = instruction + inst_length - 1; /* Last byte is immediate */
    4f8d:	8b 85 e8 fc ff ff    	mov    -0x318(%rbp),%eax
    4f93:	48 98                	cltq   
    4f95:	48 8d 50 ff          	lea    -0x1(%rax),%rdx
    4f99:	48 8b 85 68 fd ff ff 	mov    -0x298(%rbp),%rax
    4fa0:	48 01 d0             	add    %rdx,%rax
    4fa3:	48 89 85 a0 fd ff ff 	mov    %rax,-0x260(%rbp)
                write_data = *imm_ptr;
    4faa:	48 8b 85 a0 fd ff ff 	mov    -0x260(%rbp),%rax
    4fb1:	0f b6 00             	movzbl (%rax),%eax
    4fb4:	0f b6 c0             	movzbl %al,%eax
    4fb7:	48 89 85 18 fd ff ff 	mov    %rax,-0x2e8(%rbp)
                break;
    4fbe:	e9 2c 01 00 00       	jmp    50ef <segv_handler+0x14aa>
            case 0xC7: /* mov [mem], imm32/imm16 - 32/16-bit immediate write */
                is_write = 1;
    4fc3:	c7 85 d4 fc ff ff 01 	movl   $0x1,-0x32c(%rbp)
    4fca:	00 00 00 
                access_size = has_66_prefix ? 2 : 4;
    4fcd:	83 bd dc fc ff ff 00 	cmpl   $0x0,-0x324(%rbp)
    4fd4:	74 07                	je     4fdd <segv_handler+0x1398>
    4fd6:	b8 02 00 00 00       	mov    $0x2,%eax
    4fdb:	eb 05                	jmp    4fe2 <segv_handler+0x139d>
    4fdd:	b8 04 00 00 00       	mov    $0x4,%eax
    4fe2:	89 85 d8 fc ff ff    	mov    %eax,-0x328(%rbp)
                LOG_DEBUG("Detected %d-bit immediate WRITE instruction (0xC7) at RIP 0x%lx\n", access_size * 8, rip);
    4fe8:	8b 85 d8 fc ff ff    	mov    -0x328(%rbp),%eax
    4fee:	8d 0c c5 00 00 00 00 	lea    0x0(,%rax,8),%ecx
    4ff5:	48 8d 05 28 25 00 00 	lea    0x2528(%rip),%rax        # 7524 <s_timerChnBase+0x144>
    4ffc:	48 8b 95 60 fd ff ff 	mov    -0x2a0(%rbp),%rdx
    5003:	49 89 d1             	mov    %rdx,%r9
    5006:	41 89 c8             	mov    %ecx,%r8d
    5009:	48 8d 15 10 2d 00 00 	lea    0x2d10(%rip),%rdx        # 7d20 <s_timerChnBase+0x940>
    5010:	48 89 d1             	mov    %rdx,%rcx
    5013:	48 8d 15 f6 33 00 00 	lea    0x33f6(%rip),%rdx        # 8410 <__func__.7>
    501a:	48 89 c6             	mov    %rax,%rsi
    501d:	bf 00 00 00 00       	mov    $0x0,%edi
    5022:	b8 00 00 00 00       	mov    $0x0,%eax
    5027:	e8 4b 17 00 00       	call   6777 <log_message>
                /* Extract immediate value from instruction stream */
                if (has_66_prefix) {
    502c:	83 bd dc fc ff ff 00 	cmpl   $0x0,-0x324(%rbp)
    5033:	74 36                	je     506b <segv_handler+0x1426>
                    uint8_t *imm_ptr = instruction + inst_length - 2; /* Last 2 bytes are immediate */
    5035:	8b 85 e8 fc ff ff    	mov    -0x318(%rbp),%eax
    503b:	48 98                	cltq   
    503d:	48 8d 50 fe          	lea    -0x2(%rax),%rdx
    5041:	48 8b 85 68 fd ff ff 	mov    -0x298(%rbp),%rax
    5048:	48 01 d0             	add    %rdx,%rax
    504b:	48 89 85 98 fd ff ff 	mov    %rax,-0x268(%rbp)
                    write_data = *(uint16_t *)imm_ptr;
    5052:	48 8b 85 98 fd ff ff 	mov    -0x268(%rbp),%rax
    5059:	0f b7 00             	movzwl (%rax),%eax
    505c:	0f b7 c0             	movzwl %ax,%eax
    505f:	48 89 85 18 fd ff ff 	mov    %rax,-0x2e8(%rbp)
                } else {
                    uint8_t *imm_ptr = instruction + inst_length - 4; /* Last 4 bytes are immediate */
                    write_data = *(uint32_t *)imm_ptr;
                }
                break;
    5066:	e9 84 00 00 00       	jmp    50ef <segv_handler+0x14aa>
                    uint8_t *imm_ptr = instruction + inst_length - 4; /* Last 4 bytes are immediate */
    506b:	8b 85 e8 fc ff ff    	mov    -0x318(%rbp),%eax
    5071:	48 98                	cltq   
    5073:	48 8d 50 fc          	lea    -0x4(%rax),%rdx
    5077:	48 8b 85 68 fd ff ff 	mov    -0x298(%rbp),%rax
    507e:	48 01 d0             	add    %rdx,%rax
    5081:	48 89 85 90 fd ff ff 	mov    %rax,-0x270(%rbp)
                    write_data = *(uint32_t *)imm_ptr;
    5088:	48 8b 85 90 fd ff ff 	mov    -0x270(%rbp),%rax
    508f:	8b 00                	mov    (%rax),%eax
    5091:	89 c0                	mov    %eax,%eax
    5093:	48 89 85 18 fd ff ff 	mov    %rax,-0x2e8(%rbp)
                break;
    509a:	eb 53                	jmp    50ef <segv_handler+0x14aa>
            default:
                /* Unknown instruction - treat as 32-bit read for safety */
                is_write = 0;
    509c:	c7 85 d4 fc ff ff 00 	movl   $0x0,-0x32c(%rbp)
    50a3:	00 00 00 
                access_size = 4;
    50a6:	c7 85 d8 fc ff ff 04 	movl   $0x4,-0x328(%rbp)
    50ad:	00 00 00 
                LOG_DEBUG("Unknown instruction 0x%02X at RIP 0x%lx, treating as 32-bit READ\n", first_opcode, rip);
    50b0:	0f b6 95 bb fc ff ff 	movzbl -0x345(%rbp),%edx
    50b7:	48 8d 05 66 24 00 00 	lea    0x2466(%rip),%rax        # 7524 <s_timerChnBase+0x144>
    50be:	48 8b 8d 60 fd ff ff 	mov    -0x2a0(%rbp),%rcx
    50c5:	49 89 c9             	mov    %rcx,%r9
    50c8:	41 89 d0             	mov    %edx,%r8d
    50cb:	48 8d 15 96 2c 00 00 	lea    0x2c96(%rip),%rdx        # 7d68 <s_timerChnBase+0x988>
    50d2:	48 89 d1             	mov    %rdx,%rcx
    50d5:	48 8d 15 34 33 00 00 	lea    0x3334(%rip),%rdx        # 8410 <__func__.7>
    50dc:	48 89 c6             	mov    %rax,%rsi
    50df:	bf 00 00 00 00       	mov    $0x0,%edi
    50e4:	b8 00 00 00 00       	mov    $0x0,%eax
    50e9:	e8 89 16 00 00       	call   6777 <log_message>
                break;
    50ee:	90                   	nop
        }
    }

    /* Find which device this address belongs to by comparing with device base addresses */
    LOG_DEBUG("Looking for device containing fault address 0x%lx\n", fault_addr);
    50ef:	48 8d 05 2e 24 00 00 	lea    0x242e(%rip),%rax        # 7524 <s_timerChnBase+0x144>
    50f6:	48 8b 95 50 fd ff ff 	mov    -0x2b0(%rbp),%rdx
    50fd:	49 89 d0             	mov    %rdx,%r8
    5100:	48 8d 15 a9 2c 00 00 	lea    0x2ca9(%rip),%rdx        # 7db0 <s_timerChnBase+0x9d0>
    5107:	48 89 d1             	mov    %rdx,%rcx
    510a:	48 8d 15 ff 32 00 00 	lea    0x32ff(%rip),%rdx        # 8410 <__func__.7>
    5111:	48 89 c6             	mov    %rax,%rsi
    5114:	bf 00 00 00 00       	mov    $0x0,%edi
    5119:	b8 00 00 00 00       	mov    $0x0,%eax
    511e:	e8 54 16 00 00       	call   6777 <log_message>
    LOG_DEBUG("Current device count: %d\n", device_count);
    5123:	8b 15 b7 61 00 00    	mov    0x61b7(%rip),%edx        # b2e0 <device_count>
    5129:	48 8d 05 f4 23 00 00 	lea    0x23f4(%rip),%rax        # 7524 <s_timerChnBase+0x144>
    5130:	41 89 d0             	mov    %edx,%r8d
    5133:	48 8d 15 a9 2c 00 00 	lea    0x2ca9(%rip),%rdx        # 7de3 <s_timerChnBase+0xa03>
    513a:	48 89 d1             	mov    %rdx,%rcx
    513d:	48 8d 15 cc 32 00 00 	lea    0x32cc(%rip),%rdx        # 8410 <__func__.7>
    5144:	48 89 c6             	mov    %rax,%rsi
    5147:	bf 00 00 00 00       	mov    $0x0,%edi
    514c:	b8 00 00 00 00       	mov    $0x0,%eax
    5151:	e8 21 16 00 00       	call   6777 <log_message>

    for (int i = 0; i < device_count; i++) {
    5156:	c7 85 e4 fc ff ff 00 	movl   $0x0,-0x31c(%rbp)
    515d:	00 00 00 
    5160:	e9 08 05 00 00       	jmp    566d <segv_handler+0x1a28>
        uint32_t device_base = devices[i].base_address;
    5165:	8b 85 e4 fc ff ff    	mov    -0x31c(%rbp),%eax
    516b:	48 98                	cltq   
    516d:	48 c1 e0 05          	shl    $0x5,%rax
    5171:	48 89 c2             	mov    %rax,%rdx
    5174:	48 8d 05 69 5f 00 00 	lea    0x5f69(%rip),%rax        # b0e4 <devices+0x4>
    517b:	8b 04 02             	mov    (%rdx,%rax,1),%eax
    517e:	89 85 00 fd ff ff    	mov    %eax,-0x300(%rbp)
        uint32_t device_size = devices[i].size;
    5184:	8b 85 e4 fc ff ff    	mov    -0x31c(%rbp),%eax
    518a:	48 98                	cltq   
    518c:	48 c1 e0 05          	shl    $0x5,%rax
    5190:	48 89 c2             	mov    %rax,%rdx
    5193:	48 8d 05 4e 5f 00 00 	lea    0x5f4e(%rip),%rax        # b0e8 <devices+0x8>
    519a:	8b 04 02             	mov    (%rdx,%rax,1),%eax
    519d:	89 85 04 fd ff ff    	mov    %eax,-0x2fc(%rbp)
        LOG_DEBUG("Device %d: base_address=0x%x, size=0x%x, range=0x%x-0x%x\n",
    51a3:	8b 95 00 fd ff ff    	mov    -0x300(%rbp),%edx
    51a9:	8b 85 04 fd ff ff    	mov    -0x2fc(%rbp),%eax
    51af:	01 d0                	add    %edx,%eax
    51b1:	8d 50 ff             	lea    -0x1(%rax),%edx
    51b4:	8b 85 e4 fc ff ff    	mov    -0x31c(%rbp),%eax
    51ba:	48 98                	cltq   
    51bc:	48 c1 e0 05          	shl    $0x5,%rax
    51c0:	48 89 c1             	mov    %rax,%rcx
    51c3:	48 8d 05 16 5f 00 00 	lea    0x5f16(%rip),%rax        # b0e0 <devices>
    51ca:	8b 0c 01             	mov    (%rcx,%rax,1),%ecx
    51cd:	48 8d 05 50 23 00 00 	lea    0x2350(%rip),%rax        # 7524 <s_timerChnBase+0x144>
    51d4:	8b b5 00 fd ff ff    	mov    -0x300(%rbp),%esi
    51da:	48 83 ec 08          	sub    $0x8,%rsp
    51de:	52                   	push   %rdx
    51df:	8b 95 00 fd ff ff    	mov    -0x300(%rbp),%edx
    51e5:	52                   	push   %rdx
    51e6:	8b 95 04 fd ff ff    	mov    -0x2fc(%rbp),%edx
    51ec:	52                   	push   %rdx
    51ed:	41 89 f1             	mov    %esi,%r9d
    51f0:	41 89 c8             	mov    %ecx,%r8d
    51f3:	48 8d 15 06 2c 00 00 	lea    0x2c06(%rip),%rdx        # 7e00 <s_timerChnBase+0xa20>
    51fa:	48 89 d1             	mov    %rdx,%rcx
    51fd:	48 8d 15 0c 32 00 00 	lea    0x320c(%rip),%rdx        # 8410 <__func__.7>
    5204:	48 89 c6             	mov    %rax,%rsi
    5207:	bf 00 00 00 00       	mov    $0x0,%edi
    520c:	b8 00 00 00 00       	mov    $0x0,%eax
    5211:	e8 61 15 00 00       	call   6777 <log_message>
    5216:	48 83 c4 20          	add    $0x20,%rsp
               devices[i].device_id, device_base, device_size, device_base, device_base + device_size - 1);

        /* Check if fault address falls within this device's address range */
        if (fault_addr >= device_base && fault_addr < device_base + device_size) {
    521a:	8b 85 00 fd ff ff    	mov    -0x300(%rbp),%eax
    5220:	48 39 85 50 fd ff ff 	cmp    %rax,-0x2b0(%rbp)
    5227:	0f 82 39 04 00 00    	jb     5666 <segv_handler+0x1a21>
    522d:	8b 95 00 fd ff ff    	mov    -0x300(%rbp),%edx
    5233:	8b 85 04 fd ff ff    	mov    -0x2fc(%rbp),%eax
    5239:	01 d0                	add    %edx,%eax
    523b:	89 c0                	mov    %eax,%eax
    523d:	48 39 85 50 fd ff ff 	cmp    %rax,-0x2b0(%rbp)
    5244:	0f 83 1c 04 00 00    	jae    5666 <segv_handler+0x1a21>
            LOG_DEBUG("Memory access violation at device %d, address 0x%lx (%s, %d bytes)\n",
    524a:	83 bd d4 fc ff ff 00 	cmpl   $0x0,-0x32c(%rbp)
    5251:	74 09                	je     525c <segv_handler+0x1617>
    5253:	48 8d 05 e0 2b 00 00 	lea    0x2be0(%rip),%rax        # 7e3a <s_timerChnBase+0xa5a>
    525a:	eb 07                	jmp    5263 <segv_handler+0x161e>
    525c:	48 8d 05 dd 2b 00 00 	lea    0x2bdd(%rip),%rax        # 7e40 <s_timerChnBase+0xa60>
    5263:	8b 95 e4 fc ff ff    	mov    -0x31c(%rbp),%edx
    5269:	48 63 d2             	movslq %edx,%rdx
    526c:	48 89 d1             	mov    %rdx,%rcx
    526f:	48 c1 e1 05          	shl    $0x5,%rcx
    5273:	48 8d 15 66 5e 00 00 	lea    0x5e66(%rip),%rdx        # b0e0 <devices>
    527a:	8b 0c 11             	mov    (%rcx,%rdx,1),%ecx
    527d:	48 8d 35 a0 22 00 00 	lea    0x22a0(%rip),%rsi        # 7524 <s_timerChnBase+0x144>
    5284:	48 8b bd 50 fd ff ff 	mov    -0x2b0(%rbp),%rdi
    528b:	8b 95 d8 fc ff ff    	mov    -0x328(%rbp),%edx
    5291:	52                   	push   %rdx
    5292:	50                   	push   %rax
    5293:	49 89 f9             	mov    %rdi,%r9
    5296:	41 89 c8             	mov    %ecx,%r8d
    5299:	48 8d 05 a8 2b 00 00 	lea    0x2ba8(%rip),%rax        # 7e48 <s_timerChnBase+0xa68>
    52a0:	48 89 c1             	mov    %rax,%rcx
    52a3:	48 8d 05 66 31 00 00 	lea    0x3166(%rip),%rax        # 8410 <__func__.7>
    52aa:	48 89 c2             	mov    %rax,%rdx
    52ad:	bf 00 00 00 00       	mov    $0x0,%edi
    52b2:	b8 00 00 00 00       	mov    $0x0,%eax
    52b7:	e8 bb 14 00 00       	call   6777 <log_message>
    52bc:	48 83 c4 10          	add    $0x10,%rsp
                   devices[i].device_id, fault_addr, is_write ? "WRITE" : "READ", access_size);

            /* Handle the actual read/write operation by sending it to the device model */
            protocol_message_t message = {0};
    52c0:	48 8d 95 c0 fd ff ff 	lea    -0x240(%rbp),%rdx
    52c7:	b8 00 00 00 00       	mov    $0x0,%eax
    52cc:	b9 22 00 00 00       	mov    $0x22,%ecx
    52d1:	48 89 d7             	mov    %rdx,%rdi
    52d4:	f3 48 ab             	rep stos %rax,%es:(%rdi)
    52d7:	48 89 fa             	mov    %rdi,%rdx
    52da:	89 02                	mov    %eax,(%rdx)
    52dc:	48 83 c2 04          	add    $0x4,%rdx
            message.device_id = devices[i].device_id;
    52e0:	8b 85 e4 fc ff ff    	mov    -0x31c(%rbp),%eax
    52e6:	48 98                	cltq   
    52e8:	48 c1 e0 05          	shl    $0x5,%rax
    52ec:	48 89 c2             	mov    %rax,%rdx
    52ef:	48 8d 05 ea 5d 00 00 	lea    0x5dea(%rip),%rax        # b0e0 <devices>
    52f6:	8b 04 02             	mov    (%rdx,%rax,1),%eax
    52f9:	89 85 c0 fd ff ff    	mov    %eax,-0x240(%rbp)
            message.command = is_write ? CMD_WRITE : CMD_READ;
    52ff:	83 bd d4 fc ff ff 00 	cmpl   $0x0,-0x32c(%rbp)
    5306:	74 07                	je     530f <segv_handler+0x16ca>
    5308:	b8 02 00 00 00       	mov    $0x2,%eax
    530d:	eb 05                	jmp    5314 <segv_handler+0x16cf>
    530f:	b8 01 00 00 00       	mov    $0x1,%eax
    5314:	89 85 c4 fd ff ff    	mov    %eax,-0x23c(%rbp)
            message.address = (uint32_t)fault_addr;
    531a:	48 8b 85 50 fd ff ff 	mov    -0x2b0(%rbp),%rax
    5321:	89 85 c8 fd ff ff    	mov    %eax,-0x238(%rbp)
            message.length = access_size;
    5327:	8b 85 d8 fc ff ff    	mov    -0x328(%rbp),%eax
    532d:	89 85 cc fd ff ff    	mov    %eax,-0x234(%rbp)

            if (is_write) {
    5333:	83 bd d4 fc ff ff 00 	cmpl   $0x0,-0x32c(%rbp)
    533a:	74 60                	je     539c <segv_handler+0x1757>
                /* Copy write data to message based on access size */
                memcpy(message.data, &write_data, access_size);
    533c:	8b 95 d8 fc ff ff    	mov    -0x328(%rbp),%edx
    5342:	48 8d 85 18 fd ff ff 	lea    -0x2e8(%rbp),%rax
    5349:	48 8d 8d c0 fd ff ff 	lea    -0x240(%rbp),%rcx
    5350:	48 83 c1 14          	add    $0x14,%rcx
    5354:	48 89 c6             	mov    %rax,%rsi
    5357:	48 89 cf             	mov    %rcx,%rdi
    535a:	e8 c1 d0 ff ff       	call   2420 <memcpy@plt>
                LOG_DEBUG("Writing %d-byte value: 0x%lx\n", access_size, write_data);
    535f:	48 8b 8d 18 fd ff ff 	mov    -0x2e8(%rbp),%rcx
    5366:	48 8d 05 b7 21 00 00 	lea    0x21b7(%rip),%rax        # 7524 <s_timerChnBase+0x144>
    536d:	8b 95 d8 fc ff ff    	mov    -0x328(%rbp),%edx
    5373:	49 89 c9             	mov    %rcx,%r9
    5376:	41 89 d0             	mov    %edx,%r8d
    5379:	48 8d 15 0c 2b 00 00 	lea    0x2b0c(%rip),%rdx        # 7e8c <s_timerChnBase+0xaac>
    5380:	48 89 d1             	mov    %rdx,%rcx
    5383:	48 8d 15 86 30 00 00 	lea    0x3086(%rip),%rdx        # 8410 <__func__.7>
    538a:	48 89 c6             	mov    %rax,%rsi
    538d:	bf 00 00 00 00       	mov    $0x0,%edi
    5392:	b8 00 00 00 00       	mov    $0x0,%eax
    5397:	e8 db 13 00 00       	call   6777 <log_message>
            }

            protocol_message_t response = {0};
    539c:	48 8d 95 e0 fe ff ff 	lea    -0x120(%rbp),%rdx
    53a3:	b8 00 00 00 00       	mov    $0x0,%eax
    53a8:	b9 22 00 00 00       	mov    $0x22,%ecx
    53ad:	48 89 d7             	mov    %rdx,%rdi
    53b0:	f3 48 ab             	rep stos %rax,%es:(%rdi)
    53b3:	48 89 fa             	mov    %rdi,%rdx
    53b6:	89 02                	mov    %eax,(%rdx)
    53b8:	48 83 c2 04          	add    $0x4,%rdx
            if (send_message_to_model(&message, &response) == 0) {
    53bc:	48 8d 95 e0 fe ff ff 	lea    -0x120(%rbp),%rdx
    53c3:	48 8d 85 c0 fd ff ff 	lea    -0x240(%rbp),%rax
    53ca:	48 89 d6             	mov    %rdx,%rsi
    53cd:	48 89 c7             	mov    %rax,%rdi
    53d0:	e8 3d 0e 00 00       	call   6212 <send_message_to_model>
    53d5:	85 c0                	test   %eax,%eax
    53d7:	0f 85 e5 02 00 00    	jne    56c2 <segv_handler+0x1a7d>
                if (!is_write && response.result == RESULT_SUCCESS) {
    53dd:	83 bd d4 fc ff ff 00 	cmpl   $0x0,-0x32c(%rbp)
    53e4:	0f 85 fa 01 00 00    	jne    55e4 <segv_handler+0x199f>
    53ea:	8b 85 f0 fe ff ff    	mov    -0x110(%rbp),%eax
    53f0:	85 c0                	test   %eax,%eax
    53f2:	0f 85 ec 01 00 00    	jne    55e4 <segv_handler+0x199f>
                    /* For reads, backfill the destination register with the read data */
                    uint64_t read_data = 0;
    53f8:	48 c7 85 20 fd ff ff 	movq   $0x0,-0x2e0(%rbp)
    53ff:	00 00 00 00 
                    memcpy(&read_data, response.data, access_size);
    5403:	8b 95 d8 fc ff ff    	mov    -0x328(%rbp),%edx
    5409:	48 8d 85 e0 fe ff ff 	lea    -0x120(%rbp),%rax
    5410:	48 8d 48 14          	lea    0x14(%rax),%rcx
    5414:	48 8d 85 20 fd ff ff 	lea    -0x2e0(%rbp),%rax
    541b:	48 89 ce             	mov    %rcx,%rsi
    541e:	48 89 c7             	mov    %rax,%rdi
    5421:	e8 fa cf ff ff       	call   2420 <memcpy@plt>
                    LOG_DEBUG("Read completed, %d-byte data: 0x%lx\n", access_size, read_data);
    5426:	48 8b 8d 20 fd ff ff 	mov    -0x2e0(%rbp),%rcx
    542d:	48 8d 05 f0 20 00 00 	lea    0x20f0(%rip),%rax        # 7524 <s_timerChnBase+0x144>
    5434:	8b 95 d8 fc ff ff    	mov    -0x328(%rbp),%edx
    543a:	49 89 c9             	mov    %rcx,%r9
    543d:	41 89 d0             	mov    %edx,%r8d
    5440:	48 8d 15 69 2a 00 00 	lea    0x2a69(%rip),%rdx        # 7eb0 <s_timerChnBase+0xad0>
    5447:	48 89 d1             	mov    %rdx,%rcx
    544a:	48 8d 15 bf 2f 00 00 	lea    0x2fbf(%rip),%rdx        # 8410 <__func__.7>
    5451:	48 89 c6             	mov    %rax,%rsi
    5454:	bf 00 00 00 00       	mov    $0x0,%edi
    5459:	b8 00 00 00 00       	mov    $0x0,%eax
    545e:	e8 14 13 00 00       	call   6777 <log_message>

                    /* Determine destination register from ModR/M byte and update it */
                    int dest_reg = get_destination_register_from_modrm(instruction, is_two_byte_opcode,
    5463:	83 bd e0 fc ff ff 00 	cmpl   $0x0,-0x320(%rbp)
    546a:	74 09                	je     5475 <segv_handler+0x1830>
    546c:	0f b6 85 b9 fc ff ff 	movzbl -0x347(%rbp),%eax
    5473:	eb 07                	jmp    547c <segv_handler+0x1837>
    5475:	0f b6 85 bb fc ff ff 	movzbl -0x345(%rbp),%eax
    547c:	8b b5 e0 fc ff ff    	mov    -0x320(%rbp),%esi
    5482:	48 8b 8d 68 fd ff ff 	mov    -0x298(%rbp),%rcx
    5489:	89 c2                	mov    %eax,%edx
    548b:	48 89 cf             	mov    %rcx,%rdi
    548e:	e8 e6 e2 ff ff       	call   3779 <get_destination_register_from_modrm>
    5493:	89 85 08 fd ff ff    	mov    %eax,-0x2f8(%rbp)
                                                                     is_two_byte_opcode ? second_opcode : first_opcode);

                    /* Update the destination register based on access size */
                    if (access_size == 1) {
    5499:	83 bd d8 fc ff ff 01 	cmpl   $0x1,-0x328(%rbp)
    54a0:	75 4c                	jne    54ee <segv_handler+0x18a9>
                        /* 8-bit read: only update low byte, preserve high bits */
                        uctx->uc_mcontext.gregs[dest_reg] = (uctx->uc_mcontext.gregs[dest_reg] & 0xFFFFFFFFFFFFFF00ULL) | (read_data & 0xFF);
    54a2:	48 8b 85 58 fd ff ff 	mov    -0x2a8(%rbp),%rax
    54a9:	8b 95 08 fd ff ff    	mov    -0x2f8(%rbp),%edx
    54af:	48 63 d2             	movslq %edx,%rdx
    54b2:	48 83 c2 04          	add    $0x4,%rdx
    54b6:	48 8b 44 d0 08       	mov    0x8(%rax,%rdx,8),%rax
    54bb:	b0 00                	mov    $0x0,%al
    54bd:	48 89 c2             	mov    %rax,%rdx
    54c0:	48 8b 85 20 fd ff ff 	mov    -0x2e0(%rbp),%rax
    54c7:	0f b6 c0             	movzbl %al,%eax
    54ca:	48 09 d0             	or     %rdx,%rax
    54cd:	48 89 c1             	mov    %rax,%rcx
    54d0:	48 8b 85 58 fd ff ff 	mov    -0x2a8(%rbp),%rax
    54d7:	8b 95 08 fd ff ff    	mov    -0x2f8(%rbp),%edx
    54dd:	48 63 d2             	movslq %edx,%rdx
    54e0:	48 83 c2 04          	add    $0x4,%rdx
    54e4:	48 89 4c d0 08       	mov    %rcx,0x8(%rax,%rdx,8)
    54e9:	e9 a4 00 00 00       	jmp    5592 <segv_handler+0x194d>
                    } else if (access_size == 2) {
    54ee:	83 bd d8 fc ff ff 02 	cmpl   $0x2,-0x328(%rbp)
    54f5:	75 4b                	jne    5542 <segv_handler+0x18fd>
                        /* 16-bit read: only update low 16 bits, preserve high bits */
                        uctx->uc_mcontext.gregs[dest_reg] = (uctx->uc_mcontext.gregs[dest_reg] & 0xFFFFFFFFFFFF0000ULL) | (read_data & 0xFFFF);
    54f7:	48 8b 85 58 fd ff ff 	mov    -0x2a8(%rbp),%rax
    54fe:	8b 95 08 fd ff ff    	mov    -0x2f8(%rbp),%edx
    5504:	48 63 d2             	movslq %edx,%rdx
    5507:	48 83 c2 04          	add    $0x4,%rdx
    550b:	48 8b 44 d0 08       	mov    0x8(%rax,%rdx,8),%rax
    5510:	66 b8 00 00          	mov    $0x0,%ax
    5514:	48 89 c2             	mov    %rax,%rdx
    5517:	48 8b 85 20 fd ff ff 	mov    -0x2e0(%rbp),%rax
    551e:	0f b7 c0             	movzwl %ax,%eax
    5521:	48 09 d0             	or     %rdx,%rax
    5524:	48 89 c1             	mov    %rax,%rcx
    5527:	48 8b 85 58 fd ff ff 	mov    -0x2a8(%rbp),%rax
    552e:	8b 95 08 fd ff ff    	mov    -0x2f8(%rbp),%edx
    5534:	48 63 d2             	movslq %edx,%rdx
    5537:	48 83 c2 04          	add    $0x4,%rdx
    553b:	48 89 4c d0 08       	mov    %rcx,0x8(%rax,%rdx,8)
    5540:	eb 50                	jmp    5592 <segv_handler+0x194d>
                    } else if (access_size == 4) {
    5542:	83 bd d8 fc ff ff 04 	cmpl   $0x4,-0x328(%rbp)
    5549:	75 24                	jne    556f <segv_handler+0x192a>
                        /* 32-bit read: clear high 32 bits, set low 32 bits (x86-64 convention) */
                        uctx->uc_mcontext.gregs[dest_reg] = read_data & 0xFFFFFFFF;
    554b:	48 8b 85 20 fd ff ff 	mov    -0x2e0(%rbp),%rax
    5552:	89 c1                	mov    %eax,%ecx
    5554:	48 8b 85 58 fd ff ff 	mov    -0x2a8(%rbp),%rax
    555b:	8b 95 08 fd ff ff    	mov    -0x2f8(%rbp),%edx
    5561:	48 63 d2             	movslq %edx,%rdx
    5564:	48 83 c2 04          	add    $0x4,%rdx
    5568:	48 89 4c d0 08       	mov    %rcx,0x8(%rax,%rdx,8)
    556d:	eb 23                	jmp    5592 <segv_handler+0x194d>
                    } else {
                        /* 64-bit read: set entire register */
                        uctx->uc_mcontext.gregs[dest_reg] = read_data;
    556f:	48 8b 85 20 fd ff ff 	mov    -0x2e0(%rbp),%rax
    5576:	48 89 c1             	mov    %rax,%rcx
    5579:	48 8b 85 58 fd ff ff 	mov    -0x2a8(%rbp),%rax
    5580:	8b 95 08 fd ff ff    	mov    -0x2f8(%rbp),%edx
    5586:	48 63 d2             	movslq %edx,%rdx
    5589:	48 83 c2 04          	add    $0x4,%rdx
    558d:	48 89 4c d0 08       	mov    %rcx,0x8(%rax,%rdx,8)
                    }

                    LOG_DEBUG("Updated register %d with read data: 0x%llx\n", dest_reg, (unsigned long long)uctx->uc_mcontext.gregs[dest_reg]);
    5592:	48 8b 85 58 fd ff ff 	mov    -0x2a8(%rbp),%rax
    5599:	8b 95 08 fd ff ff    	mov    -0x2f8(%rbp),%edx
    559f:	48 63 d2             	movslq %edx,%rdx
    55a2:	48 83 c2 04          	add    $0x4,%rdx
    55a6:	48 8b 44 d0 08       	mov    0x8(%rax,%rdx,8),%rax
    55ab:	48 89 c1             	mov    %rax,%rcx
    55ae:	48 8d 05 6f 1f 00 00 	lea    0x1f6f(%rip),%rax        # 7524 <s_timerChnBase+0x144>
    55b5:	8b 95 08 fd ff ff    	mov    -0x2f8(%rbp),%edx
    55bb:	49 89 c9             	mov    %rcx,%r9
    55be:	41 89 d0             	mov    %edx,%r8d
    55c1:	48 8d 15 10 29 00 00 	lea    0x2910(%rip),%rdx        # 7ed8 <s_timerChnBase+0xaf8>
    55c8:	48 89 d1             	mov    %rdx,%rcx
    55cb:	48 8d 15 3e 2e 00 00 	lea    0x2e3e(%rip),%rdx        # 8410 <__func__.7>
    55d2:	48 89 c6             	mov    %rax,%rsi
    55d5:	bf 00 00 00 00       	mov    $0x0,%edi
    55da:	b8 00 00 00 00       	mov    $0x0,%eax
    55df:	e8 93 11 00 00       	call   6777 <log_message>
                }

                /* Advance RIP to skip the faulting instruction using calculated length */
                LOG_DEBUG("Advancing RIP by %d bytes (from 0x%lx to 0x%lx)\n",
    55e4:	8b 85 e8 fc ff ff    	mov    -0x318(%rbp),%eax
    55ea:	48 63 d0             	movslq %eax,%rdx
    55ed:	48 8b 85 60 fd ff ff 	mov    -0x2a0(%rbp),%rax
    55f4:	48 01 c2             	add    %rax,%rdx
    55f7:	48 8d 05 26 1f 00 00 	lea    0x1f26(%rip),%rax        # 7524 <s_timerChnBase+0x144>
    55fe:	48 8b b5 60 fd ff ff 	mov    -0x2a0(%rbp),%rsi
    5605:	8b 8d e8 fc ff ff    	mov    -0x318(%rbp),%ecx
    560b:	48 83 ec 08          	sub    $0x8,%rsp
    560f:	52                   	push   %rdx
    5610:	49 89 f1             	mov    %rsi,%r9
    5613:	41 89 c8             	mov    %ecx,%r8d
    5616:	48 8d 15 eb 28 00 00 	lea    0x28eb(%rip),%rdx        # 7f08 <s_timerChnBase+0xb28>
    561d:	48 89 d1             	mov    %rdx,%rcx
    5620:	48 8d 15 e9 2d 00 00 	lea    0x2de9(%rip),%rdx        # 8410 <__func__.7>
    5627:	48 89 c6             	mov    %rax,%rsi
    562a:	bf 00 00 00 00       	mov    $0x0,%edi
    562f:	b8 00 00 00 00       	mov    $0x0,%eax
    5634:	e8 3e 11 00 00       	call   6777 <log_message>
    5639:	48 83 c4 10          	add    $0x10,%rsp
                       inst_length, rip, rip + inst_length);
                uctx->uc_mcontext.gregs[REG_RIP] += inst_length;
    563d:	48 8b 85 58 fd ff ff 	mov    -0x2a8(%rbp),%rax
    5644:	48 8b 90 a8 00 00 00 	mov    0xa8(%rax),%rdx
    564b:	8b 85 e8 fc ff ff    	mov    -0x318(%rbp),%eax
    5651:	48 98                	cltq   
    5653:	48 01 c2             	add    %rax,%rdx
    5656:	48 8b 85 58 fd ff ff 	mov    -0x2a8(%rbp),%rax
    565d:	48 89 90 a8 00 00 00 	mov    %rdx,0xa8(%rax)
    5664:	eb 5c                	jmp    56c2 <segv_handler+0x1a7d>
    for (int i = 0; i < device_count; i++) {
    5666:	83 85 e4 fc ff ff 01 	addl   $0x1,-0x31c(%rbp)
    566d:	8b 05 6d 5c 00 00    	mov    0x5c6d(%rip),%eax        # b2e0 <device_count>
    5673:	39 85 e4 fc ff ff    	cmp    %eax,-0x31c(%rbp)
    5679:	0f 8c e6 fa ff ff    	jl     5165 <segv_handler+0x1520>
            return;
        }
    }

    /* If we get here, it's an actual segmentation fault */
    LOG_DEBUG("Actual segmentation fault at address %p\n", info->si_addr);
    567f:	48 8b 85 a0 fc ff ff 	mov    -0x360(%rbp),%rax
    5686:	48 8b 50 10          	mov    0x10(%rax),%rdx
    568a:	48 8d 05 93 1e 00 00 	lea    0x1e93(%rip),%rax        # 7524 <s_timerChnBase+0x144>
    5691:	49 89 d0             	mov    %rdx,%r8
    5694:	48 8d 15 a5 28 00 00 	lea    0x28a5(%rip),%rdx        # 7f40 <s_timerChnBase+0xb60>
    569b:	48 89 d1             	mov    %rdx,%rcx
    569e:	48 8d 15 6b 2d 00 00 	lea    0x2d6b(%rip),%rdx        # 8410 <__func__.7>
    56a5:	48 89 c6             	mov    %rax,%rsi
    56a8:	bf 00 00 00 00       	mov    $0x0,%edi
    56ad:	b8 00 00 00 00       	mov    $0x0,%eax
    56b2:	e8 c0 10 00 00       	call   6777 <log_message>
    exit(1);
    56b7:	bf 01 00 00 00       	mov    $0x1,%edi
    56bc:	e8 ff cd ff ff       	call   24c0 <exit@plt>
            return;
    56c1:	90                   	nop
}
    56c2:	48 8b 45 f8          	mov    -0x8(%rbp),%rax
    56c6:	64 48 2b 04 25 28 00 	sub    %fs:0x28,%rax
    56cd:	00 00 
    56cf:	74 05                	je     56d6 <segv_handler+0x1a91>
    56d1:	e8 9a cc ff ff       	call   2370 <__stack_chk_fail@plt>
    56d6:	c9                   	leave  
    56d7:	c3                   	ret    

00000000000056d8 <interface_layer_init>:

int interface_layer_init(void) {
    56d8:	f3 0f 1e fa          	endbr64 
    56dc:	55                   	push   %rbp
    56dd:	48 89 e5             	mov    %rsp,%rbp
    56e0:	48 81 ec c0 01 00 00 	sub    $0x1c0,%rsp
    56e7:	64 48 8b 04 25 28 00 	mov    %fs:0x28,%rax
    56ee:	00 00 
    56f0:	48 89 45 f8          	mov    %rax,-0x8(%rbp)
    56f4:	31 c0                	xor    %eax,%eax
    /* Install signal handler for SIGSEGV */
    struct sigaction sa_segv;
    sa_segv.sa_sigaction = segv_handler;
    56f6:	48 8d 05 48 e5 ff ff 	lea    -0x1ab8(%rip),%rax        # 3c45 <segv_handler>
    56fd:	48 89 85 c0 fe ff ff 	mov    %rax,-0x140(%rbp)
    sigemptyset(&sa_segv.sa_mask);
    5704:	48 8d 85 c0 fe ff ff 	lea    -0x140(%rbp),%rax
    570b:	48 83 c0 08          	add    $0x8,%rax
    570f:	48 89 c7             	mov    %rax,%rdi
    5712:	e8 f9 cc ff ff       	call   2410 <sigemptyset@plt>
    sa_segv.sa_flags = SA_SIGINFO;
    5717:	c7 85 48 ff ff ff 04 	movl   $0x4,-0xb8(%rbp)
    571e:	00 00 00 

    if (sigaction(SIGSEGV, &sa_segv, NULL) == -1) {
    5721:	48 8d 85 c0 fe ff ff 	lea    -0x140(%rbp),%rax
    5728:	ba 00 00 00 00       	mov    $0x0,%edx
    572d:	48 89 c6             	mov    %rax,%rsi
    5730:	bf 0b 00 00 00       	mov    $0xb,%edi
    5735:	e8 f6 cb ff ff       	call   2330 <sigaction@plt>
    573a:	83 f8 ff             	cmp    $0xffffffff,%eax
    573d:	75 19                	jne    5758 <interface_layer_init+0x80>
        perror("Failed to install SIGSEGV handler");
    573f:	48 8d 05 2a 28 00 00 	lea    0x282a(%rip),%rax        # 7f70 <s_timerChnBase+0xb90>
    5746:	48 89 c7             	mov    %rax,%rdi
    5749:	e8 52 cd ff ff       	call   24a0 <perror@plt>
        return -1;
    574e:	b8 ff ff ff ff       	mov    $0xffffffff,%eax
    5753:	e9 83 02 00 00       	jmp    59db <interface_layer_init+0x303>
    }

    /* Install signal handler for SIGUSR1 (interrupt delivery) */
    struct sigaction sa_usr1;
    sa_usr1.sa_sigaction = interrupt_signal_handler;
    5758:	48 8d 05 5e e3 ff ff 	lea    -0x1ca2(%rip),%rax        # 3abd <interrupt_signal_handler>
    575f:	48 89 85 60 ff ff ff 	mov    %rax,-0xa0(%rbp)
    sigemptyset(&sa_usr1.sa_mask);
    5766:	48 8d 85 60 ff ff ff 	lea    -0xa0(%rbp),%rax
    576d:	48 83 c0 08          	add    $0x8,%rax
    5771:	48 89 c7             	mov    %rax,%rdi
    5774:	e8 97 cc ff ff       	call   2410 <sigemptyset@plt>
    sa_usr1.sa_flags = SA_SIGINFO;
    5779:	c7 45 e8 04 00 00 00 	movl   $0x4,-0x18(%rbp)

    if (sigaction(SIGUSR1, &sa_usr1, NULL) == -1) {
    5780:	48 8d 85 60 ff ff ff 	lea    -0xa0(%rbp),%rax
    5787:	ba 00 00 00 00       	mov    $0x0,%edx
    578c:	48 89 c6             	mov    %rax,%rsi
    578f:	bf 0a 00 00 00       	mov    $0xa,%edi
    5794:	e8 97 cb ff ff       	call   2330 <sigaction@plt>
    5799:	83 f8 ff             	cmp    $0xffffffff,%eax
    579c:	75 19                	jne    57b7 <interface_layer_init+0xdf>
        perror("Failed to install SIGUSR1 handler for interrupts");
    579e:	48 8d 05 f3 27 00 00 	lea    0x27f3(%rip),%rax        # 7f98 <s_timerChnBase+0xbb8>
    57a5:	48 89 c7             	mov    %rax,%rdi
    57a8:	e8 f3 cc ff ff       	call   24a0 <perror@plt>
        return -1;
    57ad:	b8 ff ff ff ff       	mov    $0xffffffff,%eax
    57b2:	e9 24 02 00 00       	jmp    59db <interface_layer_init+0x303>
    }

    /* Initialize signal-based interrupt state */
    pending_device_interrupt = 0;
    57b7:	c7 05 bf 5b 00 00 00 	movl   $0x0,0x5bbf(%rip)        # b380 <pending_device_interrupt>
    57be:	00 00 00 
    pending_interrupt_id = 0;
    57c1:	c7 05 b9 5b 00 00 00 	movl   $0x0,0x5bb9(%rip)        # b384 <pending_interrupt_id>
    57c8:	00 00 00 
    interrupt_pending = 0;
    57cb:	c7 05 b3 5b 00 00 00 	movl   $0x0,0x5bb3(%rip)        # b388 <interrupt_pending>
    57d2:	00 00 00 

    /* Write PID to file for Python models to use */
    FILE *pid_file = fopen(DRIVER_PID_FILE, "w");
    57d5:	48 8d 05 ed 27 00 00 	lea    0x27ed(%rip),%rax        # 7fc9 <s_timerChnBase+0xbe9>
    57dc:	48 89 c6             	mov    %rax,%rsi
    57df:	48 8d 05 e5 27 00 00 	lea    0x27e5(%rip),%rax        # 7fcb <s_timerChnBase+0xbeb>
    57e6:	48 89 c7             	mov    %rax,%rdi
    57e9:	e8 a2 cc ff ff       	call   2490 <fopen@plt>
    57ee:	48 89 85 48 fe ff ff 	mov    %rax,-0x1b8(%rbp)
    if (pid_file) {
    57f5:	48 83 bd 48 fe ff ff 	cmpq   $0x0,-0x1b8(%rbp)
    57fc:	00 
    57fd:	74 71                	je     5870 <interface_layer_init+0x198>
        fprintf(pid_file, "%d", getpid());
    57ff:	e8 3c cb ff ff       	call   2340 <getpid@plt>
    5804:	89 c2                	mov    %eax,%edx
    5806:	48 8b 85 48 fe ff ff 	mov    -0x1b8(%rbp),%rax
    580d:	48 8d 0d cc 27 00 00 	lea    0x27cc(%rip),%rcx        # 7fe0 <s_timerChnBase+0xc00>
    5814:	48 89 ce             	mov    %rcx,%rsi
    5817:	48 89 c7             	mov    %rax,%rdi
    581a:	b8 00 00 00 00       	mov    $0x0,%eax
    581f:	e8 dc cb ff ff       	call   2400 <fprintf@plt>
        fclose(pid_file);
    5824:	48 8b 85 48 fe ff ff 	mov    -0x1b8(%rbp),%rax
    582b:	48 89 c7             	mov    %rax,%rdi
    582e:	e8 1d cb ff ff       	call   2350 <fclose@plt>
        LOG_DEBUG("Driver PID %d written to %s\n", getpid(), DRIVER_PID_FILE);
    5833:	e8 08 cb ff ff       	call   2340 <getpid@plt>
    5838:	89 c2                	mov    %eax,%edx
    583a:	48 8d 05 e3 1c 00 00 	lea    0x1ce3(%rip),%rax        # 7524 <s_timerChnBase+0x144>
    5841:	4c 8d 0d 83 27 00 00 	lea    0x2783(%rip),%r9        # 7fcb <s_timerChnBase+0xbeb>
    5848:	41 89 d0             	mov    %edx,%r8d
    584b:	48 8d 15 91 27 00 00 	lea    0x2791(%rip),%rdx        # 7fe3 <s_timerChnBase+0xc03>
    5852:	48 89 d1             	mov    %rdx,%rcx
    5855:	48 8d 15 c4 2b 00 00 	lea    0x2bc4(%rip),%rdx        # 8420 <__func__.6>
    585c:	48 89 c6             	mov    %rax,%rsi
    585f:	bf 00 00 00 00       	mov    $0x0,%edi
    5864:	b8 00 00 00 00       	mov    $0x0,%eax
    5869:	e8 09 0f 00 00       	call   6777 <log_message>
    586e:	eb 2a                	jmp    589a <interface_layer_init+0x1c2>
    } else {
        LOG_DEBUG("Warning: Failed to write PID file\n");
    5870:	48 8d 05 ad 1c 00 00 	lea    0x1cad(%rip),%rax        # 7524 <s_timerChnBase+0x144>
    5877:	48 8d 15 82 27 00 00 	lea    0x2782(%rip),%rdx        # 8000 <s_timerChnBase+0xc20>
    587e:	48 89 d1             	mov    %rdx,%rcx
    5881:	48 8d 15 98 2b 00 00 	lea    0x2b98(%rip),%rdx        # 8420 <__func__.6>
    5888:	48 89 c6             	mov    %rax,%rsi
    588b:	bf 00 00 00 00       	mov    $0x0,%edi
    5890:	b8 00 00 00 00       	mov    $0x0,%eax
    5895:	e8 dd 0e 00 00       	call   6777 <log_message>
    }

    /* Initialize socket for communication with device models */
    server_socket = socket(AF_UNIX, SOCK_STREAM, 0);
    589a:	ba 00 00 00 00       	mov    $0x0,%edx
    589f:	be 01 00 00 00       	mov    $0x1,%esi
    58a4:	bf 01 00 00 00       	mov    $0x1,%edi
    58a9:	e8 42 cc ff ff       	call   24f0 <socket@plt>
    58ae:	89 05 ac 57 00 00    	mov    %eax,0x57ac(%rip)        # b060 <server_socket>
    if (server_socket == -1) {
    58b4:	8b 05 a6 57 00 00    	mov    0x57a6(%rip),%eax        # b060 <server_socket>
    58ba:	83 f8 ff             	cmp    $0xffffffff,%eax
    58bd:	75 19                	jne    58d8 <interface_layer_init+0x200>
        perror("Failed to create socket");
    58bf:	48 8d 05 5d 27 00 00 	lea    0x275d(%rip),%rax        # 8023 <s_timerChnBase+0xc43>
    58c6:	48 89 c7             	mov    %rax,%rdi
    58c9:	e8 d2 cb ff ff       	call   24a0 <perror@plt>
        return -1;
    58ce:	b8 ff ff ff ff       	mov    $0xffffffff,%eax
    58d3:	e9 03 01 00 00       	jmp    59db <interface_layer_init+0x303>
    }

    struct sockaddr_un addr;
    memset(&addr, 0, sizeof(addr));
    58d8:	48 8d 85 50 fe ff ff 	lea    -0x1b0(%rbp),%rax
    58df:	ba 6e 00 00 00       	mov    $0x6e,%edx
    58e4:	be 00 00 00 00       	mov    $0x0,%esi
    58e9:	48 89 c7             	mov    %rax,%rdi
    58ec:	e8 df ca ff ff       	call   23d0 <memset@plt>
    addr.sun_family = AF_UNIX;
    58f1:	66 c7 85 50 fe ff ff 	movw   $0x1,-0x1b0(%rbp)
    58f8:	01 00 
    strncpy(addr.sun_path, DRIVER_SOCKET_PATH, sizeof(addr.sun_path) - 1);
    58fa:	48 8d 85 50 fe ff ff 	lea    -0x1b0(%rbp),%rax
    5901:	48 83 c0 02          	add    $0x2,%rax
    5905:	ba 6b 00 00 00       	mov    $0x6b,%edx
    590a:	48 8d 0d 2a 27 00 00 	lea    0x272a(%rip),%rcx        # 803b <s_timerChnBase+0xc5b>
    5911:	48 89 ce             	mov    %rcx,%rsi
    5914:	48 89 c7             	mov    %rax,%rdi
    5917:	e8 e4 c9 ff ff       	call   2300 <strncpy@plt>

    /* Remove existing socket file */
    unlink(DRIVER_SOCKET_PATH);
    591c:	48 8d 05 18 27 00 00 	lea    0x2718(%rip),%rax        # 803b <s_timerChnBase+0xc5b>
    5923:	48 89 c7             	mov    %rax,%rdi
    5926:	e8 c5 c9 ff ff       	call   22f0 <unlink@plt>

    if (bind(server_socket, (struct sockaddr*)&addr, sizeof(addr)) == -1) {
    592b:	48 8d 85 50 fe ff ff 	lea    -0x1b0(%rbp),%rax
    5932:	48 89 c1             	mov    %rax,%rcx
    5935:	8b 05 25 57 00 00    	mov    0x5725(%rip),%eax        # b060 <server_socket>
    593b:	ba 6e 00 00 00       	mov    $0x6e,%edx
    5940:	48 89 ce             	mov    %rcx,%rsi
    5943:	89 c7                	mov    %eax,%edi
    5945:	e8 36 cb ff ff       	call   2480 <bind@plt>
    594a:	83 f8 ff             	cmp    $0xffffffff,%eax
    594d:	75 23                	jne    5972 <interface_layer_init+0x29a>
        perror("Failed to bind socket");
    594f:	48 8d 05 00 27 00 00 	lea    0x2700(%rip),%rax        # 8056 <s_timerChnBase+0xc76>
    5956:	48 89 c7             	mov    %rax,%rdi
    5959:	e8 42 cb ff ff       	call   24a0 <perror@plt>
        close(server_socket);
    595e:	8b 05 fc 56 00 00    	mov    0x56fc(%rip),%eax        # b060 <server_socket>
    5964:	89 c7                	mov    %eax,%edi
    5966:	e8 75 ca ff ff       	call   23e0 <close@plt>
        return -1;
    596b:	b8 ff ff ff ff       	mov    $0xffffffff,%eax
    5970:	eb 69                	jmp    59db <interface_layer_init+0x303>
    }

    if (listen(server_socket, 5) == -1) {
    5972:	8b 05 e8 56 00 00    	mov    0x56e8(%rip),%eax        # b060 <server_socket>
    5978:	be 05 00 00 00       	mov    $0x5,%esi
    597d:	89 c7                	mov    %eax,%edi
    597f:	e8 cc ca ff ff       	call   2450 <listen@plt>
    5984:	83 f8 ff             	cmp    $0xffffffff,%eax
    5987:	75 23                	jne    59ac <interface_layer_init+0x2d4>
        perror("Failed to listen on socket");
    5989:	48 8d 05 dc 26 00 00 	lea    0x26dc(%rip),%rax        # 806c <s_timerChnBase+0xc8c>
    5990:	48 89 c7             	mov    %rax,%rdi
    5993:	e8 08 cb ff ff       	call   24a0 <perror@plt>
        close(server_socket);
    5998:	8b 05 c2 56 00 00    	mov    0x56c2(%rip),%eax        # b060 <server_socket>
    599e:	89 c7                	mov    %eax,%edi
    59a0:	e8 3b ca ff ff       	call   23e0 <close@plt>
        return -1;
    59a5:	b8 ff ff ff ff       	mov    $0xffffffff,%eax
    59aa:	eb 2f                	jmp    59db <interface_layer_init+0x303>
    }

    LOG_DEBUG("Driver interface initialized successfully with signal-based interrupts\n");
    59ac:	48 8d 05 71 1b 00 00 	lea    0x1b71(%rip),%rax        # 7524 <s_timerChnBase+0x144>
    59b3:	48 8d 15 ce 26 00 00 	lea    0x26ce(%rip),%rdx        # 8088 <s_timerChnBase+0xca8>
    59ba:	48 89 d1             	mov    %rdx,%rcx
    59bd:	48 8d 15 5c 2a 00 00 	lea    0x2a5c(%rip),%rdx        # 8420 <__func__.6>
    59c4:	48 89 c6             	mov    %rax,%rsi
    59c7:	bf 00 00 00 00       	mov    $0x0,%edi
    59cc:	b8 00 00 00 00       	mov    $0x0,%eax
    59d1:	e8 a1 0d 00 00       	call   6777 <log_message>
    return 0;
    59d6:	b8 00 00 00 00       	mov    $0x0,%eax
}
    59db:	48 8b 55 f8          	mov    -0x8(%rbp),%rdx
    59df:	64 48 2b 14 25 28 00 	sub    %fs:0x28,%rdx
    59e6:	00 00 
    59e8:	74 05                	je     59ef <interface_layer_init+0x317>
    59ea:	e8 81 c9 ff ff       	call   2370 <__stack_chk_fail@plt>
    59ef:	c9                   	leave  
    59f0:	c3                   	ret    

00000000000059f1 <interface_layer_deinit>:

int interface_layer_deinit(void) {
    59f1:	f3 0f 1e fa          	endbr64 
    59f5:	55                   	push   %rbp
    59f6:	48 89 e5             	mov    %rsp,%rbp
    59f9:	48 83 ec 10          	sub    $0x10,%rsp
    /* Unmap all device memory */
    for (int i = 0; i < device_count; i++) {
    59fd:	c7 45 fc 00 00 00 00 	movl   $0x0,-0x4(%rbp)
    5a04:	e9 92 00 00 00       	jmp    5a9b <interface_layer_deinit+0xaa>
        if (devices[i].mapped_memory) {
    5a09:	8b 45 fc             	mov    -0x4(%rbp),%eax
    5a0c:	48 98                	cltq   
    5a0e:	48 c1 e0 05          	shl    $0x5,%rax
    5a12:	48 89 c2             	mov    %rax,%rdx
    5a15:	48 8d 05 d4 56 00 00 	lea    0x56d4(%rip),%rax        # b0f0 <devices+0x10>
    5a1c:	48 8b 04 02          	mov    (%rdx,%rax,1),%rax
    5a20:	48 85 c0             	test   %rax,%rax
    5a23:	74 3a                	je     5a5f <interface_layer_deinit+0x6e>
            munmap(devices[i].mapped_memory, devices[i].size);
    5a25:	8b 45 fc             	mov    -0x4(%rbp),%eax
    5a28:	48 98                	cltq   
    5a2a:	48 c1 e0 05          	shl    $0x5,%rax
    5a2e:	48 89 c2             	mov    %rax,%rdx
    5a31:	48 8d 05 b0 56 00 00 	lea    0x56b0(%rip),%rax        # b0e8 <devices+0x8>
    5a38:	8b 04 02             	mov    (%rdx,%rax,1),%eax
    5a3b:	89 c1                	mov    %eax,%ecx
    5a3d:	8b 45 fc             	mov    -0x4(%rbp),%eax
    5a40:	48 98                	cltq   
    5a42:	48 c1 e0 05          	shl    $0x5,%rax
    5a46:	48 89 c2             	mov    %rax,%rdx
    5a49:	48 8d 05 a0 56 00 00 	lea    0x56a0(%rip),%rax        # b0f0 <devices+0x10>
    5a50:	48 8b 04 02          	mov    (%rdx,%rax,1),%rax
    5a54:	48 89 ce             	mov    %rcx,%rsi
    5a57:	48 89 c7             	mov    %rax,%rdi
    5a5a:	e8 11 ca ff ff       	call   2470 <munmap@plt>
        }
        if (devices[i].socket_fd != -1) {
    5a5f:	8b 45 fc             	mov    -0x4(%rbp),%eax
    5a62:	48 98                	cltq   
    5a64:	48 c1 e0 05          	shl    $0x5,%rax
    5a68:	48 89 c2             	mov    %rax,%rdx
    5a6b:	48 8d 05 86 56 00 00 	lea    0x5686(%rip),%rax        # b0f8 <devices+0x18>
    5a72:	8b 04 02             	mov    (%rdx,%rax,1),%eax
    5a75:	83 f8 ff             	cmp    $0xffffffff,%eax
    5a78:	74 1d                	je     5a97 <interface_layer_deinit+0xa6>
            close(devices[i].socket_fd);
    5a7a:	8b 45 fc             	mov    -0x4(%rbp),%eax
    5a7d:	48 98                	cltq   
    5a7f:	48 c1 e0 05          	shl    $0x5,%rax
    5a83:	48 89 c2             	mov    %rax,%rdx
    5a86:	48 8d 05 6b 56 00 00 	lea    0x566b(%rip),%rax        # b0f8 <devices+0x18>
    5a8d:	8b 04 02             	mov    (%rdx,%rax,1),%eax
    5a90:	89 c7                	mov    %eax,%edi
    5a92:	e8 49 c9 ff ff       	call   23e0 <close@plt>
    for (int i = 0; i < device_count; i++) {
    5a97:	83 45 fc 01          	addl   $0x1,-0x4(%rbp)
    5a9b:	8b 05 3f 58 00 00    	mov    0x583f(%rip),%eax        # b2e0 <device_count>
    5aa1:	39 45 fc             	cmp    %eax,-0x4(%rbp)
    5aa4:	0f 8c 5f ff ff ff    	jl     5a09 <interface_layer_deinit+0x18>
        }
    }

    if (server_socket != -1) {
    5aaa:	8b 05 b0 55 00 00    	mov    0x55b0(%rip),%eax        # b060 <server_socket>
    5ab0:	83 f8 ff             	cmp    $0xffffffff,%eax
    5ab3:	74 1c                	je     5ad1 <interface_layer_deinit+0xe0>
        close(server_socket);
    5ab5:	8b 05 a5 55 00 00    	mov    0x55a5(%rip),%eax        # b060 <server_socket>
    5abb:	89 c7                	mov    %eax,%edi
    5abd:	e8 1e c9 ff ff       	call   23e0 <close@plt>
        unlink(DRIVER_SOCKET_PATH);
    5ac2:	48 8d 05 72 25 00 00 	lea    0x2572(%rip),%rax        # 803b <s_timerChnBase+0xc5b>
    5ac9:	48 89 c7             	mov    %rax,%rdi
    5acc:	e8 1f c8 ff ff       	call   22f0 <unlink@plt>
    }

    /* Clean up PID file */
    unlink(DRIVER_PID_FILE);
    5ad1:	48 8d 05 f3 24 00 00 	lea    0x24f3(%rip),%rax        # 7fcb <s_timerChnBase+0xbeb>
    5ad8:	48 89 c7             	mov    %rax,%rdi
    5adb:	e8 10 c8 ff ff       	call   22f0 <unlink@plt>

    device_count = 0;
    5ae0:	c7 05 f6 57 00 00 00 	movl   $0x0,0x57f6(%rip)        # b2e0 <device_count>
    5ae7:	00 00 00 
    LOG_DEBUG("Driver interface deinitialized\n");
    5aea:	48 8d 05 33 1a 00 00 	lea    0x1a33(%rip),%rax        # 7524 <s_timerChnBase+0x144>
    5af1:	48 8d 15 d8 25 00 00 	lea    0x25d8(%rip),%rdx        # 80d0 <s_timerChnBase+0xcf0>
    5af8:	48 89 d1             	mov    %rdx,%rcx
    5afb:	48 8d 15 3e 29 00 00 	lea    0x293e(%rip),%rdx        # 8440 <__func__.5>
    5b02:	48 89 c6             	mov    %rax,%rsi
    5b05:	bf 00 00 00 00       	mov    $0x0,%edi
    5b0a:	b8 00 00 00 00       	mov    $0x0,%eax
    5b0f:	e8 63 0c 00 00       	call   6777 <log_message>
    return 0;
    5b14:	b8 00 00 00 00       	mov    $0x0,%eax
}
    5b19:	c9                   	leave  
    5b1a:	c3                   	ret    

0000000000005b1b <register_device>:

int register_device(uint32_t device_id, uint32_t base_address, uint32_t size) {
    5b1b:	f3 0f 1e fa          	endbr64 
    5b1f:	55                   	push   %rbp
    5b20:	48 89 e5             	mov    %rsp,%rbp
    5b23:	48 83 ec 20          	sub    $0x20,%rsp
    5b27:	89 7d ec             	mov    %edi,-0x14(%rbp)
    5b2a:	89 75 e8             	mov    %esi,-0x18(%rbp)
    5b2d:	89 55 e4             	mov    %edx,-0x1c(%rbp)
    if (device_count >= MAX_DEVICES) {
    5b30:	8b 05 aa 57 00 00    	mov    0x57aa(%rip),%eax        # b2e0 <device_count>
    5b36:	83 f8 0f             	cmp    $0xf,%eax
    5b39:	7e 34                	jle    5b6f <register_device+0x54>
        LOG_DEBUG("Maximum number of devices reached\n");
    5b3b:	48 8d 05 e2 19 00 00 	lea    0x19e2(%rip),%rax        # 7524 <s_timerChnBase+0x144>
    5b42:	48 8d 15 a7 25 00 00 	lea    0x25a7(%rip),%rdx        # 80f0 <s_timerChnBase+0xd10>
    5b49:	48 89 d1             	mov    %rdx,%rcx
    5b4c:	48 8d 15 0d 29 00 00 	lea    0x290d(%rip),%rdx        # 8460 <__func__.4>
    5b53:	48 89 c6             	mov    %rax,%rsi
    5b56:	bf 00 00 00 00       	mov    $0x0,%edi
    5b5b:	b8 00 00 00 00       	mov    $0x0,%eax
    5b60:	e8 12 0c 00 00       	call   6777 <log_message>
        return -1;
    5b65:	b8 ff ff ff ff       	mov    $0xffffffff,%eax
    5b6a:	e9 2f 01 00 00       	jmp    5c9e <register_device+0x183>
    }

    /* Allocate memory with no access permissions */
    void *mapped_mem = mmap(NULL, size, PROT_NONE, MAP_PRIVATE | MAP_ANONYMOUS, -1, 0);
    5b6f:	8b 45 e4             	mov    -0x1c(%rbp),%eax
    5b72:	41 b9 00 00 00 00    	mov    $0x0,%r9d
    5b78:	41 b8 ff ff ff ff    	mov    $0xffffffff,%r8d
    5b7e:	b9 22 00 00 00       	mov    $0x22,%ecx
    5b83:	ba 00 00 00 00       	mov    $0x0,%edx
    5b88:	48 89 c6             	mov    %rax,%rsi
    5b8b:	bf 00 00 00 00       	mov    $0x0,%edi
    5b90:	e8 eb c7 ff ff       	call   2380 <mmap@plt>
    5b95:	48 89 45 f8          	mov    %rax,-0x8(%rbp)
    if (mapped_mem == MAP_FAILED) {
    5b99:	48 83 7d f8 ff       	cmpq   $0xffffffffffffffff,-0x8(%rbp)
    5b9e:	75 19                	jne    5bb9 <register_device+0x9e>
        perror("Failed to map memory");
    5ba0:	48 8d 05 6c 25 00 00 	lea    0x256c(%rip),%rax        # 8113 <s_timerChnBase+0xd33>
    5ba7:	48 89 c7             	mov    %rax,%rdi
    5baa:	e8 f1 c8 ff ff       	call   24a0 <perror@plt>
        return -1;
    5baf:	b8 ff ff ff ff       	mov    $0xffffffff,%eax
    5bb4:	e9 e5 00 00 00       	jmp    5c9e <register_device+0x183>
    }

    devices[device_count].device_id = device_id;
    5bb9:	8b 05 21 57 00 00    	mov    0x5721(%rip),%eax        # b2e0 <device_count>
    5bbf:	48 98                	cltq   
    5bc1:	48 c1 e0 05          	shl    $0x5,%rax
    5bc5:	48 89 c1             	mov    %rax,%rcx
    5bc8:	48 8d 15 11 55 00 00 	lea    0x5511(%rip),%rdx        # b0e0 <devices>
    5bcf:	8b 45 ec             	mov    -0x14(%rbp),%eax
    5bd2:	89 04 11             	mov    %eax,(%rcx,%rdx,1)
    devices[device_count].base_address = base_address;
    5bd5:	8b 05 05 57 00 00    	mov    0x5705(%rip),%eax        # b2e0 <device_count>
    5bdb:	48 98                	cltq   
    5bdd:	48 c1 e0 05          	shl    $0x5,%rax
    5be1:	48 89 c1             	mov    %rax,%rcx
    5be4:	48 8d 15 f9 54 00 00 	lea    0x54f9(%rip),%rdx        # b0e4 <devices+0x4>
    5beb:	8b 45 e8             	mov    -0x18(%rbp),%eax
    5bee:	89 04 11             	mov    %eax,(%rcx,%rdx,1)
    devices[device_count].size = size;
    5bf1:	8b 05 e9 56 00 00    	mov    0x56e9(%rip),%eax        # b2e0 <device_count>
    5bf7:	48 98                	cltq   
    5bf9:	48 c1 e0 05          	shl    $0x5,%rax
    5bfd:	48 89 c1             	mov    %rax,%rcx
    5c00:	48 8d 15 e1 54 00 00 	lea    0x54e1(%rip),%rdx        # b0e8 <devices+0x8>
    5c07:	8b 45 e4             	mov    -0x1c(%rbp),%eax
    5c0a:	89 04 11             	mov    %eax,(%rcx,%rdx,1)
    devices[device_count].mapped_memory = mapped_mem;
    5c0d:	8b 05 cd 56 00 00    	mov    0x56cd(%rip),%eax        # b2e0 <device_count>
    5c13:	48 98                	cltq   
    5c15:	48 c1 e0 05          	shl    $0x5,%rax
    5c19:	48 89 c1             	mov    %rax,%rcx
    5c1c:	48 8d 15 cd 54 00 00 	lea    0x54cd(%rip),%rdx        # b0f0 <devices+0x10>
    5c23:	48 8b 45 f8          	mov    -0x8(%rbp),%rax
    5c27:	48 89 04 11          	mov    %rax,(%rcx,%rdx,1)
    devices[device_count].socket_fd = -1;
    5c2b:	8b 05 af 56 00 00    	mov    0x56af(%rip),%eax        # b2e0 <device_count>
    5c31:	48 98                	cltq   
    5c33:	48 c1 e0 05          	shl    $0x5,%rax
    5c37:	48 89 c2             	mov    %rax,%rdx
    5c3a:	48 8d 05 b7 54 00 00 	lea    0x54b7(%rip),%rax        # b0f8 <devices+0x18>
    5c41:	c7 04 02 ff ff ff ff 	movl   $0xffffffff,(%rdx,%rax,1)

    LOG_DEBUG("Registered device %d at base address 0x%x, size %d bytes\n",
    5c48:	48 8d 05 d5 18 00 00 	lea    0x18d5(%rip),%rax        # 7524 <s_timerChnBase+0x144>
    5c4f:	8b 75 e8             	mov    -0x18(%rbp),%esi
    5c52:	8b 4d ec             	mov    -0x14(%rbp),%ecx
    5c55:	48 83 ec 08          	sub    $0x8,%rsp
    5c59:	8b 55 e4             	mov    -0x1c(%rbp),%edx
    5c5c:	52                   	push   %rdx
    5c5d:	41 89 f1             	mov    %esi,%r9d
    5c60:	41 89 c8             	mov    %ecx,%r8d
    5c63:	48 8d 15 be 24 00 00 	lea    0x24be(%rip),%rdx        # 8128 <s_timerChnBase+0xd48>
    5c6a:	48 89 d1             	mov    %rdx,%rcx
    5c6d:	48 8d 15 ec 27 00 00 	lea    0x27ec(%rip),%rdx        # 8460 <__func__.4>
    5c74:	48 89 c6             	mov    %rax,%rsi
    5c77:	bf 00 00 00 00       	mov    $0x0,%edi
    5c7c:	b8 00 00 00 00       	mov    $0x0,%eax
    5c81:	e8 f1 0a 00 00       	call   6777 <log_message>
    5c86:	48 83 c4 10          	add    $0x10,%rsp
           device_id, base_address, size);

    device_count++;
    5c8a:	8b 05 50 56 00 00    	mov    0x5650(%rip),%eax        # b2e0 <device_count>
    5c90:	83 c0 01             	add    $0x1,%eax
    5c93:	89 05 47 56 00 00    	mov    %eax,0x5647(%rip)        # b2e0 <device_count>
    return 0;
    5c99:	b8 00 00 00 00       	mov    $0x0,%eax
}
    5c9e:	c9                   	leave  
    5c9f:	c3                   	ret    

0000000000005ca0 <unregister_device>:

int unregister_device(uint32_t device_id) {
    5ca0:	f3 0f 1e fa          	endbr64 
    5ca4:	55                   	push   %rbp
    5ca5:	48 89 e5             	mov    %rsp,%rbp
    5ca8:	48 83 ec 20          	sub    $0x20,%rsp
    5cac:	89 7d ec             	mov    %edi,-0x14(%rbp)
    for (int i = 0; i < device_count; i++) {
    5caf:	c7 45 fc 00 00 00 00 	movl   $0x0,-0x4(%rbp)
    5cb6:	e9 58 01 00 00       	jmp    5e13 <unregister_device+0x173>
        if (devices[i].device_id == device_id) {
    5cbb:	8b 45 fc             	mov    -0x4(%rbp),%eax
    5cbe:	48 98                	cltq   
    5cc0:	48 c1 e0 05          	shl    $0x5,%rax
    5cc4:	48 89 c2             	mov    %rax,%rdx
    5cc7:	48 8d 05 12 54 00 00 	lea    0x5412(%rip),%rax        # b0e0 <devices>
    5cce:	8b 04 02             	mov    (%rdx,%rax,1),%eax
    5cd1:	39 45 ec             	cmp    %eax,-0x14(%rbp)
    5cd4:	0f 85 35 01 00 00    	jne    5e0f <unregister_device+0x16f>
            if (devices[i].mapped_memory) {
    5cda:	8b 45 fc             	mov    -0x4(%rbp),%eax
    5cdd:	48 98                	cltq   
    5cdf:	48 c1 e0 05          	shl    $0x5,%rax
    5ce3:	48 89 c2             	mov    %rax,%rdx
    5ce6:	48 8d 05 03 54 00 00 	lea    0x5403(%rip),%rax        # b0f0 <devices+0x10>
    5ced:	48 8b 04 02          	mov    (%rdx,%rax,1),%rax
    5cf1:	48 85 c0             	test   %rax,%rax
    5cf4:	74 3a                	je     5d30 <unregister_device+0x90>
                munmap(devices[i].mapped_memory, devices[i].size);
    5cf6:	8b 45 fc             	mov    -0x4(%rbp),%eax
    5cf9:	48 98                	cltq   
    5cfb:	48 c1 e0 05          	shl    $0x5,%rax
    5cff:	48 89 c2             	mov    %rax,%rdx
    5d02:	48 8d 05 df 53 00 00 	lea    0x53df(%rip),%rax        # b0e8 <devices+0x8>
    5d09:	8b 04 02             	mov    (%rdx,%rax,1),%eax
    5d0c:	89 c1                	mov    %eax,%ecx
    5d0e:	8b 45 fc             	mov    -0x4(%rbp),%eax
    5d11:	48 98                	cltq   
    5d13:	48 c1 e0 05          	shl    $0x5,%rax
    5d17:	48 89 c2             	mov    %rax,%rdx
    5d1a:	48 8d 05 cf 53 00 00 	lea    0x53cf(%rip),%rax        # b0f0 <devices+0x10>
    5d21:	48 8b 04 02          	mov    (%rdx,%rax,1),%rax
    5d25:	48 89 ce             	mov    %rcx,%rsi
    5d28:	48 89 c7             	mov    %rax,%rdi
    5d2b:	e8 40 c7 ff ff       	call   2470 <munmap@plt>
            }
            if (devices[i].socket_fd != -1) {
    5d30:	8b 45 fc             	mov    -0x4(%rbp),%eax
    5d33:	48 98                	cltq   
    5d35:	48 c1 e0 05          	shl    $0x5,%rax
    5d39:	48 89 c2             	mov    %rax,%rdx
    5d3c:	48 8d 05 b5 53 00 00 	lea    0x53b5(%rip),%rax        # b0f8 <devices+0x18>
    5d43:	8b 04 02             	mov    (%rdx,%rax,1),%eax
    5d46:	83 f8 ff             	cmp    $0xffffffff,%eax
    5d49:	74 1d                	je     5d68 <unregister_device+0xc8>
                close(devices[i].socket_fd);
    5d4b:	8b 45 fc             	mov    -0x4(%rbp),%eax
    5d4e:	48 98                	cltq   
    5d50:	48 c1 e0 05          	shl    $0x5,%rax
    5d54:	48 89 c2             	mov    %rax,%rdx
    5d57:	48 8d 05 9a 53 00 00 	lea    0x539a(%rip),%rax        # b0f8 <devices+0x18>
    5d5e:	8b 04 02             	mov    (%rdx,%rax,1),%eax
    5d61:	89 c7                	mov    %eax,%edi
    5d63:	e8 78 c6 ff ff       	call   23e0 <close@plt>
            }

            /* Move last device to this position */
            if (i < device_count - 1) {
    5d68:	8b 05 72 55 00 00    	mov    0x5572(%rip),%eax        # b2e0 <device_count>
    5d6e:	83 e8 01             	sub    $0x1,%eax
    5d71:	39 45 fc             	cmp    %eax,-0x4(%rbp)
    5d74:	7d 53                	jge    5dc9 <unregister_device+0x129>
                devices[i] = devices[device_count - 1];
    5d76:	8b 05 64 55 00 00    	mov    0x5564(%rip),%eax        # b2e0 <device_count>
    5d7c:	8d 50 ff             	lea    -0x1(%rax),%edx
    5d7f:	8b 45 fc             	mov    -0x4(%rbp),%eax
    5d82:	48 98                	cltq   
    5d84:	48 c1 e0 05          	shl    $0x5,%rax
    5d88:	48 89 c6             	mov    %rax,%rsi
    5d8b:	48 8d 0d 4e 53 00 00 	lea    0x534e(%rip),%rcx        # b0e0 <devices>
    5d92:	48 63 c2             	movslq %edx,%rax
    5d95:	48 c1 e0 05          	shl    $0x5,%rax
    5d99:	49 89 c0             	mov    %rax,%r8
    5d9c:	48 8d 3d 3d 53 00 00 	lea    0x533d(%rip),%rdi        # b0e0 <devices>
    5da3:	49 8b 04 38          	mov    (%r8,%rdi,1),%rax
    5da7:	49 8b 54 38 08       	mov    0x8(%r8,%rdi,1),%rdx
    5dac:	48 89 04 0e          	mov    %rax,(%rsi,%rcx,1)
    5db0:	48 89 54 0e 08       	mov    %rdx,0x8(%rsi,%rcx,1)
    5db5:	49 8b 44 38 10       	mov    0x10(%r8,%rdi,1),%rax
    5dba:	49 8b 54 38 18       	mov    0x18(%r8,%rdi,1),%rdx
    5dbf:	48 89 44 0e 10       	mov    %rax,0x10(%rsi,%rcx,1)
    5dc4:	48 89 54 0e 18       	mov    %rdx,0x18(%rsi,%rcx,1)
            }
            device_count--;
    5dc9:	8b 05 11 55 00 00    	mov    0x5511(%rip),%eax        # b2e0 <device_count>
    5dcf:	83 e8 01             	sub    $0x1,%eax
    5dd2:	89 05 08 55 00 00    	mov    %eax,0x5508(%rip)        # b2e0 <device_count>

            LOG_DEBUG("Unregistered device %d\n", device_id);
    5dd8:	48 8d 05 45 17 00 00 	lea    0x1745(%rip),%rax        # 7524 <s_timerChnBase+0x144>
    5ddf:	8b 55 ec             	mov    -0x14(%rbp),%edx
    5de2:	41 89 d0             	mov    %edx,%r8d
    5de5:	48 8d 15 76 23 00 00 	lea    0x2376(%rip),%rdx        # 8162 <s_timerChnBase+0xd82>
    5dec:	48 89 d1             	mov    %rdx,%rcx
    5def:	48 8d 15 7a 26 00 00 	lea    0x267a(%rip),%rdx        # 8470 <__func__.3>
    5df6:	48 89 c6             	mov    %rax,%rsi
    5df9:	bf 00 00 00 00       	mov    $0x0,%edi
    5dfe:	b8 00 00 00 00       	mov    $0x0,%eax
    5e03:	e8 6f 09 00 00       	call   6777 <log_message>
            return 0;
    5e08:	b8 00 00 00 00       	mov    $0x0,%eax
    5e0d:	eb 48                	jmp    5e57 <unregister_device+0x1b7>
    for (int i = 0; i < device_count; i++) {
    5e0f:	83 45 fc 01          	addl   $0x1,-0x4(%rbp)
    5e13:	8b 05 c7 54 00 00    	mov    0x54c7(%rip),%eax        # b2e0 <device_count>
    5e19:	39 45 fc             	cmp    %eax,-0x4(%rbp)
    5e1c:	0f 8c 99 fe ff ff    	jl     5cbb <unregister_device+0x1b>
        }
    }

    LOG_DEBUG("Device %d not found\n", device_id);
    5e22:	48 8d 05 fb 16 00 00 	lea    0x16fb(%rip),%rax        # 7524 <s_timerChnBase+0x144>
    5e29:	8b 55 ec             	mov    -0x14(%rbp),%edx
    5e2c:	41 89 d0             	mov    %edx,%r8d
    5e2f:	48 8d 15 44 23 00 00 	lea    0x2344(%rip),%rdx        # 817a <s_timerChnBase+0xd9a>
    5e36:	48 89 d1             	mov    %rdx,%rcx
    5e39:	48 8d 15 30 26 00 00 	lea    0x2630(%rip),%rdx        # 8470 <__func__.3>
    5e40:	48 89 c6             	mov    %rax,%rsi
    5e43:	bf 00 00 00 00       	mov    $0x0,%edi
    5e48:	b8 00 00 00 00       	mov    $0x0,%eax
    5e4d:	e8 25 09 00 00       	call   6777 <log_message>
    return -1;
    5e52:	b8 ff ff ff ff       	mov    $0xffffffff,%eax
}
    5e57:	c9                   	leave  
    5e58:	c3                   	ret    

0000000000005e59 <read_register>:

uint32_t read_register(uint32_t address, uint32_t size) {
    5e59:	f3 0f 1e fa          	endbr64 
    5e5d:	55                   	push   %rbp
    5e5e:	48 89 e5             	mov    %rsp,%rbp
    5e61:	48 81 ec 60 02 00 00 	sub    $0x260,%rsp
    5e68:	89 bd ac fd ff ff    	mov    %edi,-0x254(%rbp)
    5e6e:	89 b5 a8 fd ff ff    	mov    %esi,-0x258(%rbp)
    5e74:	64 48 8b 04 25 28 00 	mov    %fs:0x28,%rax
    5e7b:	00 00 
    5e7d:	48 89 45 f8          	mov    %rax,-0x8(%rbp)
    5e81:	31 c0                	xor    %eax,%eax
    /* Find device for this address */
    for (int i = 0; i < device_count; i++) {
    5e83:	c7 85 bc fd ff ff 00 	movl   $0x0,-0x244(%rbp)
    5e8a:	00 00 00 
    5e8d:	e9 19 01 00 00       	jmp    5fab <read_register+0x152>
        if (address >= devices[i].base_address &&
    5e92:	8b 85 bc fd ff ff    	mov    -0x244(%rbp),%eax
    5e98:	48 98                	cltq   
    5e9a:	48 c1 e0 05          	shl    $0x5,%rax
    5e9e:	48 89 c2             	mov    %rax,%rdx
    5ea1:	48 8d 05 3c 52 00 00 	lea    0x523c(%rip),%rax        # b0e4 <devices+0x4>
    5ea8:	8b 04 02             	mov    (%rdx,%rax,1),%eax
    5eab:	39 85 ac fd ff ff    	cmp    %eax,-0x254(%rbp)
    5eb1:	0f 82 ed 00 00 00    	jb     5fa4 <read_register+0x14b>
            address < devices[i].base_address + devices[i].size) {
    5eb7:	8b 85 bc fd ff ff    	mov    -0x244(%rbp),%eax
    5ebd:	48 98                	cltq   
    5ebf:	48 c1 e0 05          	shl    $0x5,%rax
    5ec3:	48 89 c2             	mov    %rax,%rdx
    5ec6:	48 8d 05 17 52 00 00 	lea    0x5217(%rip),%rax        # b0e4 <devices+0x4>
    5ecd:	8b 0c 02             	mov    (%rdx,%rax,1),%ecx
    5ed0:	8b 85 bc fd ff ff    	mov    -0x244(%rbp),%eax
    5ed6:	48 98                	cltq   
    5ed8:	48 c1 e0 05          	shl    $0x5,%rax
    5edc:	48 89 c2             	mov    %rax,%rdx
    5edf:	48 8d 05 02 52 00 00 	lea    0x5202(%rip),%rax        # b0e8 <devices+0x8>
    5ee6:	8b 04 02             	mov    (%rdx,%rax,1),%eax
    5ee9:	01 c8                	add    %ecx,%eax
        if (address >= devices[i].base_address &&
    5eeb:	39 85 ac fd ff ff    	cmp    %eax,-0x254(%rbp)
    5ef1:	0f 83 ad 00 00 00    	jae    5fa4 <read_register+0x14b>

            protocol_message_t message = {0};
    5ef7:	48 8d 95 c0 fd ff ff 	lea    -0x240(%rbp),%rdx
    5efe:	b8 00 00 00 00       	mov    $0x0,%eax
    5f03:	b9 22 00 00 00       	mov    $0x22,%ecx
    5f08:	48 89 d7             	mov    %rdx,%rdi
    5f0b:	f3 48 ab             	rep stos %rax,%es:(%rdi)
    5f0e:	48 89 fa             	mov    %rdi,%rdx
    5f11:	89 02                	mov    %eax,(%rdx)
    5f13:	48 83 c2 04          	add    $0x4,%rdx
            message.device_id = devices[i].device_id;
    5f17:	8b 85 bc fd ff ff    	mov    -0x244(%rbp),%eax
    5f1d:	48 98                	cltq   
    5f1f:	48 c1 e0 05          	shl    $0x5,%rax
    5f23:	48 89 c2             	mov    %rax,%rdx
    5f26:	48 8d 05 b3 51 00 00 	lea    0x51b3(%rip),%rax        # b0e0 <devices>
    5f2d:	8b 04 02             	mov    (%rdx,%rax,1),%eax
    5f30:	89 85 c0 fd ff ff    	mov    %eax,-0x240(%rbp)
            message.command = CMD_READ;
    5f36:	c7 85 c4 fd ff ff 01 	movl   $0x1,-0x23c(%rbp)
    5f3d:	00 00 00 
            message.address = address;
    5f40:	8b 85 ac fd ff ff    	mov    -0x254(%rbp),%eax
    5f46:	89 85 c8 fd ff ff    	mov    %eax,-0x238(%rbp)
            message.length = size;
    5f4c:	8b 85 a8 fd ff ff    	mov    -0x258(%rbp),%eax
    5f52:	89 85 cc fd ff ff    	mov    %eax,-0x234(%rbp)

            protocol_message_t response = {0};
    5f58:	48 8d 95 e0 fe ff ff 	lea    -0x120(%rbp),%rdx
    5f5f:	b8 00 00 00 00       	mov    $0x0,%eax
    5f64:	b9 22 00 00 00       	mov    $0x22,%ecx
    5f69:	48 89 d7             	mov    %rdx,%rdi
    5f6c:	f3 48 ab             	rep stos %rax,%es:(%rdi)
    5f6f:	48 89 fa             	mov    %rdi,%rdx
    5f72:	89 02                	mov    %eax,(%rdx)
    5f74:	48 83 c2 04          	add    $0x4,%rdx
            if (send_message_to_model(&message, &response) == 0) {
    5f78:	48 8d 95 e0 fe ff ff 	lea    -0x120(%rbp),%rdx
    5f7f:	48 8d 85 c0 fd ff ff 	lea    -0x240(%rbp),%rax
    5f86:	48 89 d6             	mov    %rdx,%rsi
    5f89:	48 89 c7             	mov    %rax,%rdi
    5f8c:	e8 81 02 00 00       	call   6212 <send_message_to_model>
    5f91:	85 c0                	test   %eax,%eax
    5f93:	75 0f                	jne    5fa4 <read_register+0x14b>
                return *(uint32_t*)response.data;
    5f95:	48 8d 85 e0 fe ff ff 	lea    -0x120(%rbp),%rax
    5f9c:	48 83 c0 14          	add    $0x14,%rax
    5fa0:	8b 00                	mov    (%rax),%eax
    5fa2:	eb 51                	jmp    5ff5 <read_register+0x19c>
    for (int i = 0; i < device_count; i++) {
    5fa4:	83 85 bc fd ff ff 01 	addl   $0x1,-0x244(%rbp)
    5fab:	8b 05 2f 53 00 00    	mov    0x532f(%rip),%eax        # b2e0 <device_count>
    5fb1:	39 85 bc fd ff ff    	cmp    %eax,-0x244(%rbp)
    5fb7:	0f 8c d5 fe ff ff    	jl     5e92 <read_register+0x39>
            }
        }
    }

    LOG_DEBUG("Read from unmapped address 0x%x\n", address);
    5fbd:	48 8d 05 60 15 00 00 	lea    0x1560(%rip),%rax        # 7524 <s_timerChnBase+0x144>
    5fc4:	8b 95 ac fd ff ff    	mov    -0x254(%rbp),%edx
    5fca:	41 89 d0             	mov    %edx,%r8d
    5fcd:	48 8d 15 bc 21 00 00 	lea    0x21bc(%rip),%rdx        # 8190 <s_timerChnBase+0xdb0>
    5fd4:	48 89 d1             	mov    %rdx,%rcx
    5fd7:	48 8d 15 aa 24 00 00 	lea    0x24aa(%rip),%rdx        # 8488 <__func__.2>
    5fde:	48 89 c6             	mov    %rax,%rsi
    5fe1:	bf 00 00 00 00       	mov    $0x0,%edi
    5fe6:	b8 00 00 00 00       	mov    $0x0,%eax
    5feb:	e8 87 07 00 00       	call   6777 <log_message>
    return 0;
    5ff0:	b8 00 00 00 00       	mov    $0x0,%eax
}
    5ff5:	48 8b 55 f8          	mov    -0x8(%rbp),%rdx
    5ff9:	64 48 2b 14 25 28 00 	sub    %fs:0x28,%rdx
    6000:	00 00 
    6002:	74 05                	je     6009 <read_register+0x1b0>
    6004:	e8 67 c3 ff ff       	call   2370 <__stack_chk_fail@plt>
    6009:	c9                   	leave  
    600a:	c3                   	ret    

000000000000600b <write_register>:

int write_register(uint32_t address, uint32_t data, uint32_t size) {
    600b:	f3 0f 1e fa          	endbr64 
    600f:	55                   	push   %rbp
    6010:	48 89 e5             	mov    %rsp,%rbp
    6013:	48 81 ec 60 02 00 00 	sub    $0x260,%rsp
    601a:	89 bd ac fd ff ff    	mov    %edi,-0x254(%rbp)
    6020:	89 b5 a8 fd ff ff    	mov    %esi,-0x258(%rbp)
    6026:	89 95 a4 fd ff ff    	mov    %edx,-0x25c(%rbp)
    602c:	64 48 8b 04 25 28 00 	mov    %fs:0x28,%rax
    6033:	00 00 
    6035:	48 89 45 f8          	mov    %rax,-0x8(%rbp)
    6039:	31 c0                	xor    %eax,%eax
    /* Find device for this address */
    for (int i = 0; i < device_count; i++) {
    603b:	c7 85 bc fd ff ff 00 	movl   $0x0,-0x244(%rbp)
    6042:	00 00 00 
    6045:	e9 2b 01 00 00       	jmp    6175 <write_register+0x16a>
        if (address >= devices[i].base_address &&
    604a:	8b 85 bc fd ff ff    	mov    -0x244(%rbp),%eax
    6050:	48 98                	cltq   
    6052:	48 c1 e0 05          	shl    $0x5,%rax
    6056:	48 89 c2             	mov    %rax,%rdx
    6059:	48 8d 05 84 50 00 00 	lea    0x5084(%rip),%rax        # b0e4 <devices+0x4>
    6060:	8b 04 02             	mov    (%rdx,%rax,1),%eax
    6063:	39 85 ac fd ff ff    	cmp    %eax,-0x254(%rbp)
    6069:	0f 82 ff 00 00 00    	jb     616e <write_register+0x163>
            address < devices[i].base_address + devices[i].size) {
    606f:	8b 85 bc fd ff ff    	mov    -0x244(%rbp),%eax
    6075:	48 98                	cltq   
    6077:	48 c1 e0 05          	shl    $0x5,%rax
    607b:	48 89 c2             	mov    %rax,%rdx
    607e:	48 8d 05 5f 50 00 00 	lea    0x505f(%rip),%rax        # b0e4 <devices+0x4>
    6085:	8b 0c 02             	mov    (%rdx,%rax,1),%ecx
    6088:	8b 85 bc fd ff ff    	mov    -0x244(%rbp),%eax
    608e:	48 98                	cltq   
    6090:	48 c1 e0 05          	shl    $0x5,%rax
    6094:	48 89 c2             	mov    %rax,%rdx
    6097:	48 8d 05 4a 50 00 00 	lea    0x504a(%rip),%rax        # b0e8 <devices+0x8>
    609e:	8b 04 02             	mov    (%rdx,%rax,1),%eax
    60a1:	01 c8                	add    %ecx,%eax
        if (address >= devices[i].base_address &&
    60a3:	39 85 ac fd ff ff    	cmp    %eax,-0x254(%rbp)
    60a9:	0f 83 bf 00 00 00    	jae    616e <write_register+0x163>

            protocol_message_t message = {0};
    60af:	48 8d 95 c0 fd ff ff 	lea    -0x240(%rbp),%rdx
    60b6:	b8 00 00 00 00       	mov    $0x0,%eax
    60bb:	b9 22 00 00 00       	mov    $0x22,%ecx
    60c0:	48 89 d7             	mov    %rdx,%rdi
    60c3:	f3 48 ab             	rep stos %rax,%es:(%rdi)
    60c6:	48 89 fa             	mov    %rdi,%rdx
    60c9:	89 02                	mov    %eax,(%rdx)
    60cb:	48 83 c2 04          	add    $0x4,%rdx
            message.device_id = devices[i].device_id;
    60cf:	8b 85 bc fd ff ff    	mov    -0x244(%rbp),%eax
    60d5:	48 98                	cltq   
    60d7:	48 c1 e0 05          	shl    $0x5,%rax
    60db:	48 89 c2             	mov    %rax,%rdx
    60de:	48 8d 05 fb 4f 00 00 	lea    0x4ffb(%rip),%rax        # b0e0 <devices>
    60e5:	8b 04 02             	mov    (%rdx,%rax,1),%eax
    60e8:	89 85 c0 fd ff ff    	mov    %eax,-0x240(%rbp)
            message.command = CMD_WRITE;
    60ee:	c7 85 c4 fd ff ff 02 	movl   $0x2,-0x23c(%rbp)
    60f5:	00 00 00 
            message.address = address;
    60f8:	8b 85 ac fd ff ff    	mov    -0x254(%rbp),%eax
    60fe:	89 85 c8 fd ff ff    	mov    %eax,-0x238(%rbp)
            message.length = size;
    6104:	8b 85 a4 fd ff ff    	mov    -0x25c(%rbp),%eax
    610a:	89 85 cc fd ff ff    	mov    %eax,-0x234(%rbp)
            memcpy(message.data, &data, size);
    6110:	8b 95 a4 fd ff ff    	mov    -0x25c(%rbp),%edx
    6116:	48 8d 85 a8 fd ff ff 	lea    -0x258(%rbp),%rax
    611d:	48 8d 8d c0 fd ff ff 	lea    -0x240(%rbp),%rcx
    6124:	48 83 c1 14          	add    $0x14,%rcx
    6128:	48 89 c6             	mov    %rax,%rsi
    612b:	48 89 cf             	mov    %rcx,%rdi
    612e:	e8 ed c2 ff ff       	call   2420 <memcpy@plt>

            protocol_message_t response = {0};
    6133:	48 8d 95 e0 fe ff ff 	lea    -0x120(%rbp),%rdx
    613a:	b8 00 00 00 00       	mov    $0x0,%eax
    613f:	b9 22 00 00 00       	mov    $0x22,%ecx
    6144:	48 89 d7             	mov    %rdx,%rdi
    6147:	f3 48 ab             	rep stos %rax,%es:(%rdi)
    614a:	48 89 fa             	mov    %rdi,%rdx
    614d:	89 02                	mov    %eax,(%rdx)
    614f:	48 83 c2 04          	add    $0x4,%rdx
            return send_message_to_model(&message, &response);
    6153:	48 8d 95 e0 fe ff ff 	lea    -0x120(%rbp),%rdx
    615a:	48 8d 85 c0 fd ff ff 	lea    -0x240(%rbp),%rax
    6161:	48 89 d6             	mov    %rdx,%rsi
    6164:	48 89 c7             	mov    %rax,%rdi
    6167:	e8 a6 00 00 00       	call   6212 <send_message_to_model>
    616c:	eb 51                	jmp    61bf <write_register+0x1b4>
    for (int i = 0; i < device_count; i++) {
    616e:	83 85 bc fd ff ff 01 	addl   $0x1,-0x244(%rbp)
    6175:	8b 05 65 51 00 00    	mov    0x5165(%rip),%eax        # b2e0 <device_count>
    617b:	39 85 bc fd ff ff    	cmp    %eax,-0x244(%rbp)
    6181:	0f 8c c3 fe ff ff    	jl     604a <write_register+0x3f>
        }
    }

    LOG_DEBUG("Write to unmapped address 0x%x\n", address);
    6187:	48 8d 05 96 13 00 00 	lea    0x1396(%rip),%rax        # 7524 <s_timerChnBase+0x144>
    618e:	8b 95 ac fd ff ff    	mov    -0x254(%rbp),%edx
    6194:	41 89 d0             	mov    %edx,%r8d
    6197:	48 8d 15 1a 20 00 00 	lea    0x201a(%rip),%rdx        # 81b8 <s_timerChnBase+0xdd8>
    619e:	48 89 d1             	mov    %rdx,%rcx
    61a1:	48 8d 15 f0 22 00 00 	lea    0x22f0(%rip),%rdx        # 8498 <__func__.1>
    61a8:	48 89 c6             	mov    %rax,%rsi
    61ab:	bf 00 00 00 00       	mov    $0x0,%edi
    61b0:	b8 00 00 00 00       	mov    $0x0,%eax
    61b5:	e8 bd 05 00 00       	call   6777 <log_message>
    return -1;
    61ba:	b8 ff ff ff ff       	mov    $0xffffffff,%eax
}
    61bf:	48 8b 55 f8          	mov    -0x8(%rbp),%rdx
    61c3:	64 48 2b 14 25 28 00 	sub    %fs:0x28,%rdx
    61ca:	00 00 
    61cc:	74 05                	je     61d3 <write_register+0x1c8>
    61ce:	e8 9d c1 ff ff       	call   2370 <__stack_chk_fail@plt>
    61d3:	c9                   	leave  
    61d4:	c3                   	ret    

00000000000061d5 <register_interrupt_handler>:

int register_interrupt_handler(uint32_t interrupt_id, interrupt_handler_t handler) {
    61d5:	f3 0f 1e fa          	endbr64 
    61d9:	55                   	push   %rbp
    61da:	48 89 e5             	mov    %rsp,%rbp
    61dd:	89 7d fc             	mov    %edi,-0x4(%rbp)
    61e0:	48 89 75 f0          	mov    %rsi,-0x10(%rbp)
    if (interrupt_id < MAX_IRQS) {
    61e4:	83 7d fc 0f          	cmpl   $0xf,-0x4(%rbp)
    61e8:	77 21                	ja     620b <register_interrupt_handler+0x36>
        interrupt_handlers[interrupt_id] = handler;
    61ea:	8b 45 fc             	mov    -0x4(%rbp),%eax
    61ed:	48 8d 0c c5 00 00 00 	lea    0x0(,%rax,8),%rcx
    61f4:	00 
    61f5:	48 8d 15 04 51 00 00 	lea    0x5104(%rip),%rdx        # b300 <interrupt_handlers>
    61fc:	48 8b 45 f0          	mov    -0x10(%rbp),%rax
    6200:	48 89 04 11          	mov    %rax,(%rcx,%rdx,1)
        return 0;
    6204:	b8 00 00 00 00       	mov    $0x0,%eax
    6209:	eb 05                	jmp    6210 <register_interrupt_handler+0x3b>
    }
    return -1;
    620b:	b8 ff ff ff ff       	mov    $0xffffffff,%eax
}
    6210:	5d                   	pop    %rbp
    6211:	c3                   	ret    

0000000000006212 <send_message_to_model>:

int send_message_to_model(const protocol_message_t *message, protocol_message_t *response) {
    6212:	f3 0f 1e fa          	endbr64 
    6216:	55                   	push   %rbp
    6217:	48 89 e5             	mov    %rsp,%rbp
    621a:	48 81 ec b0 00 00 00 	sub    $0xb0,%rsp
    6221:	48 89 bd 58 ff ff ff 	mov    %rdi,-0xa8(%rbp)
    6228:	48 89 b5 50 ff ff ff 	mov    %rsi,-0xb0(%rbp)
    622f:	64 48 8b 04 25 28 00 	mov    %fs:0x28,%rax
    6236:	00 00 
    6238:	48 89 45 f8          	mov    %rax,-0x8(%rbp)
    623c:	31 c0                	xor    %eax,%eax
    LOG_DEBUG("Sending to model: device_id=%d, cmd=%d, addr=0x%x, data=0x%x, len=%d\n",
    623e:	48 8b 85 58 ff ff ff 	mov    -0xa8(%rbp),%rax
    6245:	8b 70 0c             	mov    0xc(%rax),%esi
    6248:	48 8b 85 58 ff ff ff 	mov    -0xa8(%rbp),%rax
    624f:	0f b6 40 14          	movzbl 0x14(%rax),%eax
    6253:	0f b6 c8             	movzbl %al,%ecx
    6256:	48 8b 85 58 ff ff ff 	mov    -0xa8(%rbp),%rax
    625d:	8b 50 08             	mov    0x8(%rax),%edx
    6260:	48 8b 85 58 ff ff ff 	mov    -0xa8(%rbp),%rax
    6267:	44 8b 40 04          	mov    0x4(%rax),%r8d
    626b:	48 8b 85 58 ff ff ff 	mov    -0xa8(%rbp),%rax
    6272:	8b 38                	mov    (%rax),%edi
    6274:	48 8d 05 a9 12 00 00 	lea    0x12a9(%rip),%rax        # 7524 <s_timerChnBase+0x144>
    627b:	48 83 ec 08          	sub    $0x8,%rsp
    627f:	56                   	push   %rsi
    6280:	51                   	push   %rcx
    6281:	52                   	push   %rdx
    6282:	45 89 c1             	mov    %r8d,%r9d
    6285:	41 89 f8             	mov    %edi,%r8d
    6288:	48 8d 15 49 1f 00 00 	lea    0x1f49(%rip),%rdx        # 81d8 <s_timerChnBase+0xdf8>
    628f:	48 89 d1             	mov    %rdx,%rcx
    6292:	48 8d 15 17 22 00 00 	lea    0x2217(%rip),%rdx        # 84b0 <__func__.0>
    6299:	48 89 c6             	mov    %rax,%rsi
    629c:	bf 00 00 00 00       	mov    $0x0,%edi
    62a1:	b8 00 00 00 00       	mov    $0x0,%eax
    62a6:	e8 cc 04 00 00       	call   6777 <log_message>
    62ab:	48 83 c4 20          	add    $0x20,%rsp
           message->device_id, message->command, message->address, message->data[0], message->length);

    /* Try to connect to Python model via socket */
    int model_socket = socket(AF_UNIX, SOCK_STREAM, 0);
    62af:	ba 00 00 00 00       	mov    $0x0,%edx
    62b4:	be 01 00 00 00       	mov    $0x1,%esi
    62b9:	bf 01 00 00 00       	mov    $0x1,%edi
    62be:	e8 2d c2 ff ff       	call   24f0 <socket@plt>
    62c3:	89 85 68 ff ff ff    	mov    %eax,-0x98(%rbp)
    if (model_socket == -1) {
    62c9:	83 bd 68 ff ff ff ff 	cmpl   $0xffffffff,-0x98(%rbp)
    62d0:	75 34                	jne    6306 <send_message_to_model+0xf4>
        LOG_DEBUG("Failed to create socket for model communication\n");
    62d2:	48 8d 05 4b 12 00 00 	lea    0x124b(%rip),%rax        # 7524 <s_timerChnBase+0x144>
    62d9:	48 8d 15 40 1f 00 00 	lea    0x1f40(%rip),%rdx        # 8220 <s_timerChnBase+0xe40>
    62e0:	48 89 d1             	mov    %rdx,%rcx
    62e3:	48 8d 15 c6 21 00 00 	lea    0x21c6(%rip),%rdx        # 84b0 <__func__.0>
    62ea:	48 89 c6             	mov    %rax,%rsi
    62ed:	bf 00 00 00 00       	mov    $0x0,%edi
    62f2:	b8 00 00 00 00       	mov    $0x0,%eax
    62f7:	e8 7b 04 00 00       	call   6777 <log_message>
        return -1;
    62fc:	b8 ff ff ff ff       	mov    $0xffffffff,%eax
    6301:	e9 42 03 00 00       	jmp    6648 <send_message_to_model+0x436>
    }

    struct sockaddr_un model_addr;
    memset(&model_addr, 0, sizeof(model_addr));
    6306:	48 8d 45 80          	lea    -0x80(%rbp),%rax
    630a:	ba 6e 00 00 00       	mov    $0x6e,%edx
    630f:	be 00 00 00 00       	mov    $0x0,%esi
    6314:	48 89 c7             	mov    %rax,%rdi
    6317:	e8 b4 c0 ff ff       	call   23d0 <memset@plt>
    model_addr.sun_family = AF_UNIX;
    631c:	66 c7 45 80 01 00    	movw   $0x1,-0x80(%rbp)
    strncpy(model_addr.sun_path, SOCKET_PATH, sizeof(model_addr.sun_path) - 1);
    6322:	48 8d 45 80          	lea    -0x80(%rbp),%rax
    6326:	48 83 c0 02          	add    $0x2,%rax
    632a:	ba 6b 00 00 00       	mov    $0x6b,%edx
    632f:	48 8d 0d 1b 1f 00 00 	lea    0x1f1b(%rip),%rcx        # 8251 <s_timerChnBase+0xe71>
    6336:	48 89 ce             	mov    %rcx,%rsi
    6339:	48 89 c7             	mov    %rax,%rdi
    633c:	e8 bf bf ff ff       	call   2300 <strncpy@plt>

    /* Attempt to connect to model - Unix sockets usually connect immediately */
    int connect_result = connect(model_socket, (struct sockaddr*)&model_addr, sizeof(model_addr));
    6341:	48 8d 45 80          	lea    -0x80(%rbp),%rax
    6345:	48 89 c1             	mov    %rax,%rcx
    6348:	8b 85 68 ff ff ff    	mov    -0x98(%rbp),%eax
    634e:	ba 6e 00 00 00       	mov    $0x6e,%edx
    6353:	48 89 ce             	mov    %rcx,%rsi
    6356:	89 c7                	mov    %eax,%edi
    6358:	e8 73 c1 ff ff       	call   24d0 <connect@plt>
    635d:	89 85 6c ff ff ff    	mov    %eax,-0x94(%rbp)
    if (connect_result == -1) {
    6363:	83 bd 6c ff ff ff ff 	cmpl   $0xffffffff,-0x94(%rbp)
    636a:	75 50                	jne    63bc <send_message_to_model+0x1aa>
        /* Model not available, fall back to simulation */
        LOG_DEBUG("Model not available (connect failed: %s), using simulation\n", strerror(errno));
    636c:	e8 6f bf ff ff       	call   22e0 <__errno_location@plt>
    6371:	8b 00                	mov    (%rax),%eax
    6373:	89 c7                	mov    %eax,%edi
    6375:	e8 66 c1 ff ff       	call   24e0 <strerror@plt>
    637a:	48 89 c2             	mov    %rax,%rdx
    637d:	48 8d 05 a0 11 00 00 	lea    0x11a0(%rip),%rax        # 7524 <s_timerChnBase+0x144>
    6384:	49 89 d0             	mov    %rdx,%r8
    6387:	48 8d 15 da 1e 00 00 	lea    0x1eda(%rip),%rdx        # 8268 <s_timerChnBase+0xe88>
    638e:	48 89 d1             	mov    %rdx,%rcx
    6391:	48 8d 15 18 21 00 00 	lea    0x2118(%rip),%rdx        # 84b0 <__func__.0>
    6398:	48 89 c6             	mov    %rax,%rsi
    639b:	bf 00 00 00 00       	mov    $0x0,%edi
    63a0:	b8 00 00 00 00       	mov    $0x0,%eax
    63a5:	e8 cd 03 00 00       	call   6777 <log_message>
        close(model_socket);
    63aa:	8b 85 68 ff ff ff    	mov    -0x98(%rbp),%eax
    63b0:	89 c7                	mov    %eax,%edi
    63b2:	e8 29 c0 ff ff       	call   23e0 <close@plt>
        goto simulation_fallback;
    63b7:	e9 09 02 00 00       	jmp    65c5 <send_message_to_model+0x3b3>
    }

    LOG_DEBUG("Connected to model successfully\n");
    63bc:	48 8d 05 61 11 00 00 	lea    0x1161(%rip),%rax        # 7524 <s_timerChnBase+0x144>
    63c3:	48 8d 15 de 1e 00 00 	lea    0x1ede(%rip),%rdx        # 82a8 <s_timerChnBase+0xec8>
    63ca:	48 89 d1             	mov    %rdx,%rcx
    63cd:	48 8d 15 dc 20 00 00 	lea    0x20dc(%rip),%rdx        # 84b0 <__func__.0>
    63d4:	48 89 c6             	mov    %rax,%rsi
    63d7:	bf 00 00 00 00       	mov    $0x0,%edi
    63dc:	b8 00 00 00 00       	mov    $0x0,%eax
    63e1:	e8 91 03 00 00       	call   6777 <log_message>

    /* Send message to model */
    ssize_t bytes_sent = send(model_socket, message, sizeof(protocol_message_t), 0);
    63e6:	48 8b b5 58 ff ff ff 	mov    -0xa8(%rbp),%rsi
    63ed:	8b 85 68 ff ff ff    	mov    -0x98(%rbp),%eax
    63f3:	b9 00 00 00 00       	mov    $0x0,%ecx
    63f8:	ba 14 01 00 00       	mov    $0x114,%edx
    63fd:	89 c7                	mov    %eax,%edi
    63ff:	e8 8c bf ff ff       	call   2390 <send@plt>
    6404:	48 89 85 70 ff ff ff 	mov    %rax,-0x90(%rbp)
    if (bytes_sent != sizeof(protocol_message_t)) {
    640b:	48 81 bd 70 ff ff ff 	cmpq   $0x114,-0x90(%rbp)
    6412:	14 01 00 00 
    6416:	0f 84 94 00 00 00    	je     64b0 <send_message_to_model+0x29e>
        LOG_DEBUG("Failed to send complete message to model (%zd/%zu bytes), using simulation\n",
    641c:	48 8d 05 01 11 00 00 	lea    0x1101(%rip),%rax        # 7524 <s_timerChnBase+0x144>
    6423:	48 8b 95 70 ff ff ff 	mov    -0x90(%rbp),%rdx
    642a:	41 b9 14 01 00 00    	mov    $0x114,%r9d
    6430:	49 89 d0             	mov    %rdx,%r8
    6433:	48 8d 15 96 1e 00 00 	lea    0x1e96(%rip),%rdx        # 82d0 <s_timerChnBase+0xef0>
    643a:	48 89 d1             	mov    %rdx,%rcx
    643d:	48 8d 15 6c 20 00 00 	lea    0x206c(%rip),%rdx        # 84b0 <__func__.0>
    6444:	48 89 c6             	mov    %rax,%rsi
    6447:	bf 00 00 00 00       	mov    $0x0,%edi
    644c:	b8 00 00 00 00       	mov    $0x0,%eax
    6451:	e8 21 03 00 00       	call   6777 <log_message>
               bytes_sent, sizeof(protocol_message_t));
        if (bytes_sent == -1) {
    6456:	48 83 bd 70 ff ff ff 	cmpq   $0xffffffffffffffff,-0x90(%rbp)
    645d:	ff 
    645e:	75 3e                	jne    649e <send_message_to_model+0x28c>
            LOG_DEBUG("send() error: %s\n", strerror(errno));
    6460:	e8 7b be ff ff       	call   22e0 <__errno_location@plt>
    6465:	8b 00                	mov    (%rax),%eax
    6467:	89 c7                	mov    %eax,%edi
    6469:	e8 72 c0 ff ff       	call   24e0 <strerror@plt>
    646e:	48 89 c2             	mov    %rax,%rdx
    6471:	48 8d 05 ac 10 00 00 	lea    0x10ac(%rip),%rax        # 7524 <s_timerChnBase+0x144>
    6478:	49 89 d0             	mov    %rdx,%r8
    647b:	48 8d 15 9a 1e 00 00 	lea    0x1e9a(%rip),%rdx        # 831c <s_timerChnBase+0xf3c>
    6482:	48 89 d1             	mov    %rdx,%rcx
    6485:	48 8d 15 24 20 00 00 	lea    0x2024(%rip),%rdx        # 84b0 <__func__.0>
    648c:	48 89 c6             	mov    %rax,%rsi
    648f:	bf 00 00 00 00       	mov    $0x0,%edi
    6494:	b8 00 00 00 00       	mov    $0x0,%eax
    6499:	e8 d9 02 00 00       	call   6777 <log_message>
        }
        close(model_socket);
    649e:	8b 85 68 ff ff ff    	mov    -0x98(%rbp),%eax
    64a4:	89 c7                	mov    %eax,%edi
    64a6:	e8 35 bf ff ff       	call   23e0 <close@plt>
        goto simulation_fallback;
    64ab:	e9 15 01 00 00       	jmp    65c5 <send_message_to_model+0x3b3>
    }

    LOG_DEBUG("Message sent to model (%zd bytes)\n", bytes_sent);
    64b0:	48 8d 05 6d 10 00 00 	lea    0x106d(%rip),%rax        # 7524 <s_timerChnBase+0x144>
    64b7:	48 8b 95 70 ff ff ff 	mov    -0x90(%rbp),%rdx
    64be:	49 89 d0             	mov    %rdx,%r8
    64c1:	48 8d 15 68 1e 00 00 	lea    0x1e68(%rip),%rdx        # 8330 <s_timerChnBase+0xf50>
    64c8:	48 89 d1             	mov    %rdx,%rcx
    64cb:	48 8d 15 de 1f 00 00 	lea    0x1fde(%rip),%rdx        # 84b0 <__func__.0>
    64d2:	48 89 c6             	mov    %rax,%rsi
    64d5:	bf 00 00 00 00       	mov    $0x0,%edi
    64da:	b8 00 00 00 00       	mov    $0x0,%eax
    64df:	e8 93 02 00 00       	call   6777 <log_message>

    /* Receive response from model */
    if (response) {
    64e4:	48 83 bd 50 ff ff ff 	cmpq   $0x0,-0xb0(%rbp)
    64eb:	00 
    64ec:	0f 84 bc 00 00 00    	je     65ae <send_message_to_model+0x39c>
        ssize_t bytes_received = recv(model_socket, response, sizeof(protocol_message_t), 0);
    64f2:	48 8b b5 50 ff ff ff 	mov    -0xb0(%rbp),%rsi
    64f9:	8b 85 68 ff ff ff    	mov    -0x98(%rbp),%eax
    64ff:	b9 00 00 00 00       	mov    $0x0,%ecx
    6504:	ba 14 01 00 00       	mov    $0x114,%edx
    6509:	89 c7                	mov    %eax,%edi
    650b:	e8 a0 bd ff ff       	call   22b0 <recv@plt>
    6510:	48 89 85 78 ff ff ff 	mov    %rax,-0x88(%rbp)
        if (bytes_received != sizeof(protocol_message_t)) {
    6517:	48 81 bd 78 ff ff ff 	cmpq   $0x114,-0x88(%rbp)
    651e:	14 01 00 00 
    6522:	74 49                	je     656d <send_message_to_model+0x35b>
            LOG_DEBUG("Failed to receive complete response from model (%zd/%zu bytes), using simulation\n",
    6524:	48 8d 05 f9 0f 00 00 	lea    0xff9(%rip),%rax        # 7524 <s_timerChnBase+0x144>
    652b:	48 8b 95 78 ff ff ff 	mov    -0x88(%rbp),%rdx
    6532:	41 b9 14 01 00 00    	mov    $0x114,%r9d
    6538:	49 89 d0             	mov    %rdx,%r8
    653b:	48 8d 15 16 1e 00 00 	lea    0x1e16(%rip),%rdx        # 8358 <s_timerChnBase+0xf78>
    6542:	48 89 d1             	mov    %rdx,%rcx
    6545:	48 8d 15 64 1f 00 00 	lea    0x1f64(%rip),%rdx        # 84b0 <__func__.0>
    654c:	48 89 c6             	mov    %rax,%rsi
    654f:	bf 00 00 00 00       	mov    $0x0,%edi
    6554:	b8 00 00 00 00       	mov    $0x0,%eax
    6559:	e8 19 02 00 00       	call   6777 <log_message>
                   bytes_received, sizeof(protocol_message_t));
            close(model_socket);
    655e:	8b 85 68 ff ff ff    	mov    -0x98(%rbp),%eax
    6564:	89 c7                	mov    %eax,%edi
    6566:	e8 75 be ff ff       	call   23e0 <close@plt>
            goto simulation_fallback;
    656b:	eb 58                	jmp    65c5 <send_message_to_model+0x3b3>
        }
        LOG_DEBUG("Received response from model: result=%d (%zd bytes)\n", response->result, bytes_received);
    656d:	48 8b 85 50 ff ff ff 	mov    -0xb0(%rbp),%rax
    6574:	8b 50 10             	mov    0x10(%rax),%edx
    6577:	48 8d 05 a6 0f 00 00 	lea    0xfa6(%rip),%rax        # 7524 <s_timerChnBase+0x144>
    657e:	48 8b 8d 78 ff ff ff 	mov    -0x88(%rbp),%rcx
    6585:	49 89 c9             	mov    %rcx,%r9
    6588:	41 89 d0             	mov    %edx,%r8d
    658b:	48 8d 15 1e 1e 00 00 	lea    0x1e1e(%rip),%rdx        # 83b0 <s_timerChnBase+0xfd0>
    6592:	48 89 d1             	mov    %rdx,%rcx
    6595:	48 8d 15 14 1f 00 00 	lea    0x1f14(%rip),%rdx        # 84b0 <__func__.0>
    659c:	48 89 c6             	mov    %rax,%rsi
    659f:	bf 00 00 00 00       	mov    $0x0,%edi
    65a4:	b8 00 00 00 00       	mov    $0x0,%eax
    65a9:	e8 c9 01 00 00       	call   6777 <log_message>
    }

    close(model_socket);
    65ae:	8b 85 68 ff ff ff    	mov    -0x98(%rbp),%eax
    65b4:	89 c7                	mov    %eax,%edi
    65b6:	e8 25 be ff ff       	call   23e0 <close@plt>
    return 0;
    65bb:	b8 00 00 00 00       	mov    $0x0,%eax
    65c0:	e9 83 00 00 00       	jmp    6648 <send_message_to_model+0x436>

simulation_fallback:
    /* Fallback simulation logic */
    if (response) {
    65c5:	48 83 bd 50 ff ff ff 	cmpq   $0x0,-0xb0(%rbp)
    65cc:	00 
    65cd:	74 74                	je     6643 <send_message_to_model+0x431>
        memcpy(response, message, sizeof(protocol_message_t));
    65cf:	48 8b 8d 58 ff ff ff 	mov    -0xa8(%rbp),%rcx
    65d6:	48 8b 85 50 ff ff ff 	mov    -0xb0(%rbp),%rax
    65dd:	ba 14 01 00 00       	mov    $0x114,%edx
    65e2:	48 89 ce             	mov    %rcx,%rsi
    65e5:	48 89 c7             	mov    %rax,%rdi
    65e8:	e8 33 be ff ff       	call   2420 <memcpy@plt>
        response->result = RESULT_SUCCESS;
    65ed:	48 8b 85 50 ff ff ff 	mov    -0xb0(%rbp),%rax
    65f4:	c7 40 10 00 00 00 00 	movl   $0x0,0x10(%rax)

        if (message->command == CMD_READ) {
    65fb:	48 8b 85 58 ff ff ff 	mov    -0xa8(%rbp),%rax
    6602:	8b 40 04             	mov    0x4(%rax),%eax
    6605:	83 f8 01             	cmp    $0x1,%eax
    6608:	75 39                	jne    6643 <send_message_to_model+0x431>
            uint32_t simulated_data = 0xDEADBEEF;
    660a:	c7 85 64 ff ff ff ef 	movl   $0xdeadbeef,-0x9c(%rbp)
    6611:	be ad de 
            if ((message->address & 0xFF) == 0x04) {  /* STATUS register offset */
    6614:	48 8b 85 58 ff ff ff 	mov    -0xa8(%rbp),%rax
    661b:	8b 40 08             	mov    0x8(%rax),%eax
    661e:	0f b6 c0             	movzbl %al,%eax
    6621:	83 f8 04             	cmp    $0x4,%eax
    6624:	75 0a                	jne    6630 <send_message_to_model+0x41e>
                simulated_data = 0x00000001;  /* READY bit set */
    6626:	c7 85 64 ff ff ff 01 	movl   $0x1,-0x9c(%rbp)
    662d:	00 00 00 
            }
            memcpy(response->data, &simulated_data, sizeof(simulated_data));
    6630:	48 8b 85 50 ff ff ff 	mov    -0xb0(%rbp),%rax
    6637:	48 8d 50 14          	lea    0x14(%rax),%rdx
    663b:	8b 85 64 ff ff ff    	mov    -0x9c(%rbp),%eax
    6641:	89 02                	mov    %eax,(%rdx)
        }
    }
    return 0;
    6643:	b8 00 00 00 00       	mov    $0x0,%eax
}
    6648:	48 8b 55 f8          	mov    -0x8(%rbp),%rdx
    664c:	64 48 2b 14 25 28 00 	sub    %fs:0x28,%rdx
    6653:	00 00 
    6655:	74 05                	je     665c <send_message_to_model+0x44a>
    6657:	e8 14 bd ff ff       	call   2370 <__stack_chk_fail@plt>
    665c:	c9                   	leave  
    665d:	c3                   	ret    

000000000000665e <get_interface_process_pid>:

/* Function to get the current process PID for signal-based interrupts */
pid_t get_interface_process_pid(void) {
    665e:	f3 0f 1e fa          	endbr64 
    6662:	55                   	push   %rbp
    6663:	48 89 e5             	mov    %rsp,%rbp
    return getpid();
    6666:	e8 d5 bc ff ff       	call   2340 <getpid@plt>
}
    666b:	5d                   	pop    %rbp
    666c:	c3                   	ret    

000000000000666d <log_init>:
    "INFO",
    "WARN",
    "ERROR"
};

void log_init(void) {
    666d:	f3 0f 1e fa          	endbr64 
    6671:	55                   	push   %rbp
    6672:	48 89 e5             	mov    %rsp,%rbp
    6675:	48 83 ec 10          	sub    $0x10,%rsp
    if (logging_initialized) {
    6679:	8b 05 0d 4d 00 00    	mov    0x4d0d(%rip),%eax        # b38c <logging_initialized>
    667f:	85 c0                	test   %eax,%eax
    6681:	0f 85 c0 00 00 00    	jne    6747 <log_init+0xda>
        return;
    }

    /* Check environment variable for log level */
    const char* env_level = getenv("ICD3_LOG_LEVEL");
    6687:	48 8d 05 50 1e 00 00 	lea    0x1e50(%rip),%rax        # 84de <__func__.0+0x2e>
    668e:	48 89 c7             	mov    %rax,%rdi
    6691:	e8 0a bc ff ff       	call   22a0 <getenv@plt>
    6696:	48 89 45 f8          	mov    %rax,-0x8(%rbp)
    if (env_level) {
    669a:	48 83 7d f8 00       	cmpq   $0x0,-0x8(%rbp)
    669f:	0f 84 96 00 00 00    	je     673b <log_init+0xce>
        if (strcmp(env_level, "DEBUG") == 0) {
    66a5:	48 8b 45 f8          	mov    -0x8(%rbp),%rax
    66a9:	48 8d 15 18 1e 00 00 	lea    0x1e18(%rip),%rdx        # 84c8 <__func__.0+0x18>
    66b0:	48 89 d6             	mov    %rdx,%rsi
    66b3:	48 89 c7             	mov    %rax,%rdi
    66b6:	e8 35 bd ff ff       	call   23f0 <strcmp@plt>
    66bb:	85 c0                	test   %eax,%eax
    66bd:	75 0c                	jne    66cb <log_init+0x5e>
            current_log_level = LOG_LEVEL_DEBUG;
    66bf:	c7 05 9b 49 00 00 00 	movl   $0x0,0x499b(%rip)        # b064 <current_log_level>
    66c6:	00 00 00 
    66c9:	eb 70                	jmp    673b <log_init+0xce>
        } else if (strcmp(env_level, "INFO") == 0) {
    66cb:	48 8b 45 f8          	mov    -0x8(%rbp),%rax
    66cf:	48 8d 15 f8 1d 00 00 	lea    0x1df8(%rip),%rdx        # 84ce <__func__.0+0x1e>
    66d6:	48 89 d6             	mov    %rdx,%rsi
    66d9:	48 89 c7             	mov    %rax,%rdi
    66dc:	e8 0f bd ff ff       	call   23f0 <strcmp@plt>
    66e1:	85 c0                	test   %eax,%eax
    66e3:	75 0c                	jne    66f1 <log_init+0x84>
            current_log_level = LOG_LEVEL_INFO;
    66e5:	c7 05 75 49 00 00 01 	movl   $0x1,0x4975(%rip)        # b064 <current_log_level>
    66ec:	00 00 00 
    66ef:	eb 4a                	jmp    673b <log_init+0xce>
        } else if (strcmp(env_level, "WARN") == 0) {
    66f1:	48 8b 45 f8          	mov    -0x8(%rbp),%rax
    66f5:	48 8d 15 d7 1d 00 00 	lea    0x1dd7(%rip),%rdx        # 84d3 <__func__.0+0x23>
    66fc:	48 89 d6             	mov    %rdx,%rsi
    66ff:	48 89 c7             	mov    %rax,%rdi
    6702:	e8 e9 bc ff ff       	call   23f0 <strcmp@plt>
    6707:	85 c0                	test   %eax,%eax
    6709:	75 0c                	jne    6717 <log_init+0xaa>
            current_log_level = LOG_LEVEL_WARN;
    670b:	c7 05 4f 49 00 00 02 	movl   $0x2,0x494f(%rip)        # b064 <current_log_level>
    6712:	00 00 00 
    6715:	eb 24                	jmp    673b <log_init+0xce>
        } else if (strcmp(env_level, "ERROR") == 0) {
    6717:	48 8b 45 f8          	mov    -0x8(%rbp),%rax
    671b:	48 8d 15 b6 1d 00 00 	lea    0x1db6(%rip),%rdx        # 84d8 <__func__.0+0x28>
    6722:	48 89 d6             	mov    %rdx,%rsi
    6725:	48 89 c7             	mov    %rax,%rdi
    6728:	e8 c3 bc ff ff       	call   23f0 <strcmp@plt>
    672d:	85 c0                	test   %eax,%eax
    672f:	75 0a                	jne    673b <log_init+0xce>
            current_log_level = LOG_LEVEL_ERROR;
    6731:	c7 05 29 49 00 00 03 	movl   $0x3,0x4929(%rip)        # b064 <current_log_level>
    6738:	00 00 00 
        }
    }

    logging_initialized = 1;
    673b:	c7 05 47 4c 00 00 01 	movl   $0x1,0x4c47(%rip)        # b38c <logging_initialized>
    6742:	00 00 00 
    6745:	eb 01                	jmp    6748 <log_init+0xdb>
        return;
    6747:	90                   	nop
}
    6748:	c9                   	leave  
    6749:	c3                   	ret    

000000000000674a <log_set_level>:

void log_set_level(log_level_t level) {
    674a:	f3 0f 1e fa          	endbr64 
    674e:	55                   	push   %rbp
    674f:	48 89 e5             	mov    %rsp,%rbp
    6752:	89 7d fc             	mov    %edi,-0x4(%rbp)
    if (level >= LOG_LEVEL_DEBUG && level <= LOG_LEVEL_ERROR) {
    6755:	83 7d fc 03          	cmpl   $0x3,-0x4(%rbp)
    6759:	77 09                	ja     6764 <log_set_level+0x1a>
        current_log_level = level;
    675b:	8b 45 fc             	mov    -0x4(%rbp),%eax
    675e:	89 05 00 49 00 00    	mov    %eax,0x4900(%rip)        # b064 <current_log_level>
    }
}
    6764:	90                   	nop
    6765:	5d                   	pop    %rbp
    6766:	c3                   	ret    

0000000000006767 <log_get_level>:

log_level_t log_get_level(void) {
    6767:	f3 0f 1e fa          	endbr64 
    676b:	55                   	push   %rbp
    676c:	48 89 e5             	mov    %rsp,%rbp
    return current_log_level;
    676f:	8b 05 ef 48 00 00    	mov    0x48ef(%rip),%eax        # b064 <current_log_level>
}
    6775:	5d                   	pop    %rbp
    6776:	c3                   	ret    

0000000000006777 <log_message>:

void log_message(log_level_t level, const char *file, const char *func, const char *format, ...) {
    6777:	f3 0f 1e fa          	endbr64 
    677b:	55                   	push   %rbp
    677c:	48 89 e5             	mov    %rsp,%rbp
    677f:	48 81 ec 10 01 00 00 	sub    $0x110,%rsp
    6786:	89 bd 0c ff ff ff    	mov    %edi,-0xf4(%rbp)
    678c:	48 89 b5 00 ff ff ff 	mov    %rsi,-0x100(%rbp)
    6793:	48 89 95 f8 fe ff ff 	mov    %rdx,-0x108(%rbp)
    679a:	48 89 8d f0 fe ff ff 	mov    %rcx,-0x110(%rbp)
    67a1:	4c 89 85 70 ff ff ff 	mov    %r8,-0x90(%rbp)
    67a8:	4c 89 8d 78 ff ff ff 	mov    %r9,-0x88(%rbp)
    67af:	84 c0                	test   %al,%al
    67b1:	74 20                	je     67d3 <log_message+0x5c>
    67b3:	0f 29 45 80          	movaps %xmm0,-0x80(%rbp)
    67b7:	0f 29 4d 90          	movaps %xmm1,-0x70(%rbp)
    67bb:	0f 29 55 a0          	movaps %xmm2,-0x60(%rbp)
    67bf:	0f 29 5d b0          	movaps %xmm3,-0x50(%rbp)
    67c3:	0f 29 65 c0          	movaps %xmm4,-0x40(%rbp)
    67c7:	0f 29 6d d0          	movaps %xmm5,-0x30(%rbp)
    67cb:	0f 29 75 e0          	movaps %xmm6,-0x20(%rbp)
    67cf:	0f 29 7d f0          	movaps %xmm7,-0x10(%rbp)
    67d3:	64 48 8b 04 25 28 00 	mov    %fs:0x28,%rax
    67da:	00 00 
    67dc:	48 89 85 48 ff ff ff 	mov    %rax,-0xb8(%rbp)
    67e3:	31 c0                	xor    %eax,%eax
    if (!logging_initialized) {
    67e5:	8b 05 a1 4b 00 00    	mov    0x4ba1(%rip),%eax        # b38c <logging_initialized>
    67eb:	85 c0                	test   %eax,%eax
    67ed:	75 05                	jne    67f4 <log_message+0x7d>
        log_init();
    67ef:	e8 79 fe ff ff       	call   666d <log_init>
    }

    /* Filter by log level */
    if (level < current_log_level) {
    67f4:	8b 05 6a 48 00 00    	mov    0x486a(%rip),%eax        # b064 <current_log_level>
    67fa:	39 85 0c ff ff ff    	cmp    %eax,-0xf4(%rbp)
    6800:	0f 82 18 01 00 00    	jb     691e <log_message+0x1a7>
        return;
    }

    /* Get timestamp */
    struct timeval tv;
    gettimeofday(&tv, NULL);
    6806:	48 8d 85 20 ff ff ff 	lea    -0xe0(%rbp),%rax
    680d:	be 00 00 00 00       	mov    $0x0,%esi
    6812:	48 89 c7             	mov    %rax,%rdi
    6815:	e8 a6 bb ff ff       	call   23c0 <gettimeofday@plt>
    struct tm *tm_info = localtime(&tv.tv_sec);
    681a:	48 8d 85 20 ff ff ff 	lea    -0xe0(%rbp),%rax
    6821:	48 89 c7             	mov    %rax,%rdi
    6824:	e8 a7 ba ff ff       	call   22d0 <localtime@plt>
    6829:	48 89 85 18 ff ff ff 	mov    %rax,-0xe8(%rbp)

    /* Print timestamp, level, location, and message */
    printf("[%02d:%02d:%02d.%03ld] [%s] [%s:%s] ",
    6830:	8b 85 0c ff ff ff    	mov    -0xf4(%rbp),%eax
    6836:	48 8d 14 c5 00 00 00 	lea    0x0(,%rax,8),%rdx
    683d:	00 
    683e:	48 8d 05 3b 48 00 00 	lea    0x483b(%rip),%rax        # b080 <level_names>
    6845:	48 8b 34 02          	mov    (%rdx,%rax,1),%rsi
           tm_info->tm_hour, tm_info->tm_min, tm_info->tm_sec,
           tv.tv_usec / 1000,
    6849:	48 8b 8d 28 ff ff ff 	mov    -0xd8(%rbp),%rcx
    printf("[%02d:%02d:%02d.%03ld] [%s] [%s:%s] ",
    6850:	48 ba cf f7 53 e3 a5 	movabs $0x20c49ba5e353f7cf,%rdx
    6857:	9b c4 20 
    685a:	48 89 c8             	mov    %rcx,%rax
    685d:	48 f7 ea             	imul   %rdx
    6860:	48 89 d0             	mov    %rdx,%rax
    6863:	48 c1 f8 07          	sar    $0x7,%rax
    6867:	48 c1 f9 3f          	sar    $0x3f,%rcx
    686b:	48 89 ca             	mov    %rcx,%rdx
    686e:	48 29 d0             	sub    %rdx,%rax
    6871:	48 89 c7             	mov    %rax,%rdi
    6874:	48 8b 85 18 ff ff ff 	mov    -0xe8(%rbp),%rax
    687b:	8b 08                	mov    (%rax),%ecx
    687d:	48 8b 85 18 ff ff ff 	mov    -0xe8(%rbp),%rax
    6884:	8b 50 04             	mov    0x4(%rax),%edx
    6887:	48 8b 85 18 ff ff ff 	mov    -0xe8(%rbp),%rax
    688e:	8b 40 08             	mov    0x8(%rax),%eax
    6891:	ff b5 f8 fe ff ff    	push   -0x108(%rbp)
    6897:	ff b5 00 ff ff ff    	push   -0x100(%rbp)
    689d:	49 89 f1             	mov    %rsi,%r9
    68a0:	49 89 f8             	mov    %rdi,%r8
    68a3:	89 c6                	mov    %eax,%esi
    68a5:	48 8d 05 44 1c 00 00 	lea    0x1c44(%rip),%rax        # 84f0 <__func__.0+0x40>
    68ac:	48 89 c7             	mov    %rax,%rdi
    68af:	b8 00 00 00 00       	mov    $0x0,%eax
    68b4:	e8 e7 ba ff ff       	call   23a0 <printf@plt>
    68b9:	48 83 c4 10          	add    $0x10,%rsp
           level_names[level],
           file, func);

    /* Print the actual message */
    va_list args;
    va_start(args, format);
    68bd:	c7 85 30 ff ff ff 20 	movl   $0x20,-0xd0(%rbp)
    68c4:	00 00 00 
    68c7:	c7 85 34 ff ff ff 30 	movl   $0x30,-0xcc(%rbp)
    68ce:	00 00 00 
    68d1:	48 8d 45 10          	lea    0x10(%rbp),%rax
    68d5:	48 89 85 38 ff ff ff 	mov    %rax,-0xc8(%rbp)
    68dc:	48 8d 85 50 ff ff ff 	lea    -0xb0(%rbp),%rax
    68e3:	48 89 85 40 ff ff ff 	mov    %rax,-0xc0(%rbp)
    vprintf(format, args);
    68ea:	48 8d 95 30 ff ff ff 	lea    -0xd0(%rbp),%rdx
    68f1:	48 8b 85 f0 fe ff ff 	mov    -0x110(%rbp),%rax
    68f8:	48 89 d6             	mov    %rdx,%rsi
    68fb:	48 89 c7             	mov    %rax,%rdi
    68fe:	e8 5d bb ff ff       	call   2460 <vprintf@plt>
    va_end(args);

    printf("\n");
    6903:	bf 0a 00 00 00       	mov    $0xa,%edi
    6908:	e8 b3 b9 ff ff       	call   22c0 <putchar@plt>
    fflush(stdout);
    690d:	48 8b 05 8c 47 00 00 	mov    0x478c(%rip),%rax        # b0a0 <stdout@GLIBC_2.2.5>
    6914:	48 89 c7             	mov    %rax,%rdi
    6917:	e8 24 bb ff ff       	call   2440 <fflush@plt>
    691c:	eb 01                	jmp    691f <log_message+0x1a8>
        return;
    691e:	90                   	nop
    691f:	48 8b 85 48 ff ff ff 	mov    -0xb8(%rbp),%rax
    6926:	64 48 2b 04 25 28 00 	sub    %fs:0x28,%rax
    692d:	00 00 
    692f:	74 05                	je     6936 <log_message+0x1bf>
    6931:	e8 3a ba ff ff       	call   2370 <__stack_chk_fail@plt>
    6936:	c9                   	leave  
    6937:	c3                   	ret    

Disassembly of section .fini:

0000000000006938 <_fini>:
    6938:	f3 0f 1e fa          	endbr64 
    693c:	48 83 ec 08          	sub    $0x8,%rsp
    6940:	48 83 c4 08          	add    $0x8,%rsp
    6944:	c3                   	ret    
